	.file	"ChaosMagic.cpp"
	.text
.Ltext0:
	.section	.text._ZNK12ReadOnlyListIPN6Charon10FancyMagicEE4sizeEv,"axG",@progbits,_ZNK12ReadOnlyListIPN6Charon10FancyMagicEE4sizeEv,comdat
	.align 2
	.weak	_ZNK12ReadOnlyListIPN6Charon10FancyMagicEE4sizeEv
	.type	_ZNK12ReadOnlyListIPN6Charon10FancyMagicEE4sizeEv, @function
_ZNK12ReadOnlyListIPN6Charon10FancyMagicEE4sizeEv:
.LVL0:
.LFB4311:
	.file 1 "List.h"
	.loc 1 75 5 view -0
	.cfi_startproc
	.loc 1 75 5 is_stmt 0 view .LVU1
	endbr64
	subq	$8, %rsp
	.cfi_def_cfa_offset 16
	.loc 1 77 10 view .LVU2
	movq	8(%rdi), %rdi
.LVL1:
	.loc 1 77 25 view .LVU3
	movq	(%rdi), %rax
	call	*24(%rax)
.LVL2:
	.loc 1 77 28 view .LVU4
	addq	$8, %rsp
	.cfi_def_cfa_offset 8
	ret
	.cfi_endproc
.LFE4311:
	.size	_ZNK12ReadOnlyListIPN6Charon10FancyMagicEE4sizeEv, .-_ZNK12ReadOnlyListIPN6Charon10FancyMagicEE4sizeEv
	.section	.text._ZNK12ReadOnlyListIPN6Charon10FancyMagicEE7isEmptyEv,"axG",@progbits,_ZNK12ReadOnlyListIPN6Charon10FancyMagicEE7isEmptyEv,comdat
	.align 2
	.weak	_ZNK12ReadOnlyListIPN6Charon10FancyMagicEE7isEmptyEv
	.type	_ZNK12ReadOnlyListIPN6Charon10FancyMagicEE7isEmptyEv, @function
_ZNK12ReadOnlyListIPN6Charon10FancyMagicEE7isEmptyEv:
.LVL3:
.LFB4312:
	.loc 1 80 6 is_stmt 1 view -0
	.cfi_startproc
	.loc 1 80 6 is_stmt 0 view .LVU6
	endbr64
	subq	$8, %rsp
	.cfi_def_cfa_offset 16
	.loc 1 82 10 view .LVU7
	movq	8(%rdi), %rdi
.LVL4:
	.loc 1 82 28 view .LVU8
	movq	(%rdi), %rax
	call	*32(%rax)
.LVL5:
	.loc 1 82 31 view .LVU9
	addq	$8, %rsp
	.cfi_def_cfa_offset 8
	ret
	.cfi_endproc
.LFE4312:
	.size	_ZNK12ReadOnlyListIPN6Charon10FancyMagicEE7isEmptyEv, .-_ZNK12ReadOnlyListIPN6Charon10FancyMagicEE7isEmptyEv
	.section	.text._ZNK10UniqueListIPN6Charon10FancyMagicEE4sizeEv,"axG",@progbits,_ZNK10UniqueListIPN6Charon10FancyMagicEE4sizeEv,comdat
	.align 2
	.weak	_ZNK10UniqueListIPN6Charon10FancyMagicEE4sizeEv
	.type	_ZNK10UniqueListIPN6Charon10FancyMagicEE4sizeEv, @function
_ZNK10UniqueListIPN6Charon10FancyMagicEE4sizeEv:
.LVL6:
.LFB4320:
	.file 2 "UniqueList.h"
	.loc 2 100 5 is_stmt 1 view -0
	.cfi_startproc
	.loc 2 100 5 is_stmt 0 view .LVU11
	endbr64
	.loc 2 102 12 view .LVU12
	movl	16(%rdi), %eax
	.loc 2 103 1 view .LVU13
	ret
	.cfi_endproc
.LFE4320:
	.size	_ZNK10UniqueListIPN6Charon10FancyMagicEE4sizeEv, .-_ZNK10UniqueListIPN6Charon10FancyMagicEE4sizeEv
	.section	.text._ZNK10UniqueListIPN6Charon10FancyMagicEE7isEmptyEv,"axG",@progbits,_ZNK10UniqueListIPN6Charon10FancyMagicEE7isEmptyEv,comdat
	.align 2
	.weak	_ZNK10UniqueListIPN6Charon10FancyMagicEE7isEmptyEv
	.type	_ZNK10UniqueListIPN6Charon10FancyMagicEE7isEmptyEv, @function
_ZNK10UniqueListIPN6Charon10FancyMagicEE7isEmptyEv:
.LVL7:
.LFB4321:
	.loc 2 106 6 is_stmt 1 view -0
	.cfi_startproc
	.loc 2 106 6 is_stmt 0 view .LVU15
	endbr64
	.loc 2 108 27 view .LVU16
	cmpl	$0, 16(%rdi)
	setle	%al
	.loc 2 109 1 view .LVU17
	ret
	.cfi_endproc
.LFE4321:
	.size	_ZNK10UniqueListIPN6Charon10FancyMagicEE7isEmptyEv, .-_ZNK10UniqueListIPN6Charon10FancyMagicEE7isEmptyEv
	.section	.rodata._ZNK10UniqueListIPN6Charon10FancyMagicEEixEi.str1.8,"aMS",@progbits,1
	.align 8
.LC0:
	.string	"T* UniqueList<T*>::operator[](int) const [with T = Charon::FancyMagic]"
	.section	.rodata._ZNK10UniqueListIPN6Charon10FancyMagicEEixEi.str1.1,"aMS",@progbits,1
.LC1:
	.string	"UniqueList.h"
.LC2:
	.string	"i >= 0 && i < runningSize"
	.section	.text._ZNK10UniqueListIPN6Charon10FancyMagicEEixEi,"axG",@progbits,_ZNK10UniqueListIPN6Charon10FancyMagicEEixEi,comdat
	.align 2
	.weak	_ZNK10UniqueListIPN6Charon10FancyMagicEEixEi
	.type	_ZNK10UniqueListIPN6Charon10FancyMagicEEixEi, @function
_ZNK10UniqueListIPN6Charon10FancyMagicEEixEi:
.LVL8:
.LFB4322:
	.loc 2 112 4 is_stmt 1 view -0
	.cfi_startproc
	.loc 2 112 4 is_stmt 0 view .LVU19
	endbr64
	.loc 2 114 5 view .LVU20
	testl	%esi, %esi
	js	.L8
	.loc 2 114 5 discriminator 1 view .LVU21
	cmpl	%esi, 16(%rdi)
	jle	.L8
	.loc 2 115 17 view .LVU22
	movslq	%esi, %rsi
	.loc 2 115 18 view .LVU23
	movq	8(%rdi), %rax
	movq	(%rax,%rsi,8), %rax
	.loc 2 116 1 view .LVU24
	ret
.L8:
	.loc 2 112 4 discriminator 3 view .LVU25
	subq	$8, %rsp
	.cfi_def_cfa_offset 16
	.loc 2 114 5 discriminator 3 view .LVU26
	leaq	.LC0(%rip), %rcx
	movl	$114, %edx
	leaq	.LC1(%rip), %rsi
.LVL9:
	.loc 2 114 5 discriminator 3 view .LVU27
	leaq	.LC2(%rip), %rdi
.LVL10:
	.loc 2 114 5 discriminator 3 view .LVU28
	call	__assert_fail@PLT
.LVL11:
	.cfi_endproc
.LFE4322:
	.size	_ZNK10UniqueListIPN6Charon10FancyMagicEEixEi, .-_ZNK10UniqueListIPN6Charon10FancyMagicEEixEi
	.section	.rodata._ZNK12ReadOnlyListIPN6Charon10FancyMagicEEixEi.str1.8,"aMS",@progbits,1
	.align 8
.LC3:
	.string	"T* ReadOnlyList<T*>::operator[](int) const [with T = Charon::FancyMagic]"
	.section	.rodata._ZNK12ReadOnlyListIPN6Charon10FancyMagicEEixEi.str1.1,"aMS",@progbits,1
.LC4:
	.string	"List.h"
	.section	.rodata._ZNK12ReadOnlyListIPN6Charon10FancyMagicEEixEi.str1.8
	.align 8
.LC5:
	.string	"i >= 0 && i < internal->size()"
	.section	.text._ZNK12ReadOnlyListIPN6Charon10FancyMagicEEixEi,"axG",@progbits,_ZNK12ReadOnlyListIPN6Charon10FancyMagicEEixEi,comdat
	.align 2
	.weak	_ZNK12ReadOnlyListIPN6Charon10FancyMagicEEixEi
	.type	_ZNK12ReadOnlyListIPN6Charon10FancyMagicEEixEi, @function
_ZNK12ReadOnlyListIPN6Charon10FancyMagicEEixEi:
.LVL12:
.LFB4313:
	.loc 1 85 4 is_stmt 1 view -0
	.cfi_startproc
	.loc 1 85 4 is_stmt 0 view .LVU30
	endbr64
	pushq	%rbp
	.cfi_def_cfa_offset 16
	.cfi_offset 6, -16
	pushq	%rbx
	.cfi_def_cfa_offset 24
	.cfi_offset 3, -24
	subq	$8, %rsp
	.cfi_def_cfa_offset 32
	.loc 1 87 5 view .LVU31
	testl	%esi, %esi
	js	.L13
	movq	%rdi, %rbp
	movl	%esi, %ebx
	.loc 1 87 5 discriminator 1 view .LVU32
	movq	8(%rdi), %rdi
.LVL13:
	.loc 1 87 5 discriminator 1 view .LVU33
	movq	(%rdi), %rax
	call	*24(%rax)
.LVL14:
	.loc 1 87 5 discriminator 1 view .LVU34
	cmpl	%eax, %ebx
	jge	.L13
	.loc 1 88 14 view .LVU35
	movq	8(%rbp), %rdi
	.loc 1 88 23 view .LVU36
	movq	(%rdi), %rax
	movl	%ebx, %esi
	call	*40(%rax)
.LVL15:
	.loc 1 89 1 view .LVU37
	addq	$8, %rsp
	.cfi_remember_state
	.cfi_def_cfa_offset 24
	popq	%rbx
	.cfi_def_cfa_offset 16
.LVL16:
	.loc 1 89 1 view .LVU38
	popq	%rbp
	.cfi_def_cfa_offset 8
.LVL17:
	.loc 1 89 1 view .LVU39
	ret
.L13:
	.cfi_restore_state
	.loc 1 87 5 discriminator 3 view .LVU40
	leaq	.LC3(%rip), %rcx
	movl	$87, %edx
	leaq	.LC4(%rip), %rsi
	leaq	.LC5(%rip), %rdi
	call	__assert_fail@PLT
.LVL18:
	.cfi_endproc
.LFE4313:
	.size	_ZNK12ReadOnlyListIPN6Charon10FancyMagicEEixEi, .-_ZNK12ReadOnlyListIPN6Charon10FancyMagicEEixEi
	.section	.rodata._ZN10UniqueListIPN6Charon10FancyMagicEE6insertEiS2_.str1.8,"aMS",@progbits,1
	.align 8
.LC6:
	.string	"void UniqueList<T*>::insert(int, T*) [with T = Charon::FancyMagic]"
	.section	.text._ZN10UniqueListIPN6Charon10FancyMagicEE6insertEiS2_,"axG",@progbits,_ZN10UniqueListIPN6Charon10FancyMagicEE6insertEiS2_,comdat
	.align 2
	.weak	_ZN10UniqueListIPN6Charon10FancyMagicEE6insertEiS2_
	.type	_ZN10UniqueListIPN6Charon10FancyMagicEE6insertEiS2_, @function
_ZN10UniqueListIPN6Charon10FancyMagicEE6insertEiS2_:
.LVL19:
.LFB4319:
	.loc 2 82 6 is_stmt 1 view -0
	.cfi_startproc
	.loc 2 82 6 is_stmt 0 view .LVU42
	endbr64
	pushq	%r13
	.cfi_def_cfa_offset 16
	.cfi_offset 13, -16
	pushq	%r12
	.cfi_def_cfa_offset 24
	.cfi_offset 12, -24
	pushq	%rbp
	.cfi_def_cfa_offset 32
	.cfi_offset 6, -32
	pushq	%rbx
	.cfi_def_cfa_offset 40
	.cfi_offset 3, -40
	subq	$8, %rsp
	.cfi_def_cfa_offset 48
	.loc 2 84 5 view .LVU43
	testl	%esi, %esi
	js	.L17
	movq	%rdi, %rbx
	movl	%esi, %ebp
	movq	%rdx, %r12
	.loc 2 84 5 discriminator 1 view .LVU44
	movl	16(%rdi), %edx
.LVL20:
	.loc 2 84 5 discriminator 1 view .LVU45
	cmpl	%esi, %edx
	jle	.L17
.LVL21:
.LBB463:
.LBI463:
	.loc 2 71 13 is_stmt 1 view .LVU46
.LBB464:
	.loc 2 72 23 is_stmt 0 view .LVU47
	movl	20(%rdi), %eax
	.loc 2 72 5 view .LVU48
	cmpl	%eax, %edx
	jl	.L19
.LBB465:
	.loc 2 73 39 view .LVU49
	addl	%eax, %eax
	.loc 2 73 22 view .LVU50
	movl	%eax, 20(%rdi)
	cltq
	movabsq	$1152921504606846975, %rdx
	cmpq	%rdx, %rax
	ja	.L20
	leaq	0(,%rax,8), %rdi
.LVL22:
	.loc 2 73 22 view .LVU51
	call	_Znam@PLT
.LVL23:
	.loc 2 73 22 view .LVU52
	movq	%rax, %r13
.LVL24:
.LBB466:
	.loc 2 74 26 is_stmt 1 view .LVU53
	.loc 2 74 28 is_stmt 0 view .LVU54
	movl	16(%rbx), %eax
.LVL25:
	.loc 2 74 26 view .LVU55
	testl	%eax, %eax
	jle	.L33
	.loc 2 75 23 view .LVU56
	movq	8(%rbx), %rsi
	leal	-1(%rax), %ecx
	movl	$0, %eax
.LVL26:
.L24:
	.loc 2 75 27 view .LVU57
	movq	(%rsi,%rax,8), %rdx
	.loc 2 75 13 view .LVU58
	movq	%rdx, 0(%r13,%rax,8)
	.loc 2 74 9 is_stmt 1 view .LVU59
.LVL27:
	.loc 2 74 26 view .LVU60
	movq	%rax, %rdx
	addq	$1, %rax
.LVL28:
	.loc 2 74 26 is_stmt 0 view .LVU61
	cmpq	%rcx, %rdx
	jne	.L24
.LBE466:
	.loc 2 76 18 view .LVU62
	movq	8(%rbx), %rdi
.L28:
	.loc 2 76 9 view .LVU63
	call	_ZdaPv@PLT
.LVL29:
.L25:
	.loc 2 77 9 view .LVU64
	movq	%r13, 8(%rbx)
.LVL30:
.L19:
	.loc 2 77 9 view .LVU65
.LBE465:
.LBE464:
.LBE463:
.LBB469:
	.loc 2 86 17 view .LVU66
	movl	16(%rbx), %edx
	.loc 2 86 13 view .LVU67
	leal	1(%rdx), %eax
	movl	%eax, 16(%rbx)
.LVL31:
	.loc 2 86 34 is_stmt 1 view .LVU68
	cmpl	%ebp, %edx
	jl	.L26
	movslq	%edx, %rsi
	leaq	0(,%rsi,8), %rax
	subl	%ebp, %edx
.LVL32:
	.loc 2 86 34 is_stmt 0 view .LVU69
	subq	%rdx, %rsi
.LVL33:
	.loc 2 86 34 view .LVU70
	salq	$3, %rsi
.LVL34:
.L27:
	.loc 2 87 23 discriminator 2 view .LVU71
	movq	8(%rbx), %rdx
	.loc 2 87 27 discriminator 2 view .LVU72
	movq	(%rdx,%rax), %rcx
	.loc 2 87 9 discriminator 2 view .LVU73
	movq	%rcx, 8(%rdx,%rax)
	.loc 2 86 5 is_stmt 1 discriminator 2 view .LVU74
	.loc 2 86 34 discriminator 2 view .LVU75
	movq	%rax, %rdx
	subq	$8, %rax
	cmpq	%rsi, %rdx
	jne	.L27
.L26:
	.loc 2 86 34 is_stmt 0 discriminator 2 view .LVU76
.LBE469:
	.loc 2 88 10 view .LVU77
	movslq	%ebp, %rbp
	.loc 2 88 5 view .LVU78
	movq	8(%rbx), %rax
	movq	%r12, (%rax,%rbp,8)
	.loc 2 89 1 view .LVU79
	addq	$8, %rsp
	.cfi_remember_state
	.cfi_def_cfa_offset 40
	popq	%rbx
	.cfi_def_cfa_offset 32
.LVL35:
	.loc 2 89 1 view .LVU80
	popq	%rbp
	.cfi_def_cfa_offset 24
.LVL36:
	.loc 2 89 1 view .LVU81
	popq	%r12
	.cfi_def_cfa_offset 16
.LVL37:
	.loc 2 89 1 view .LVU82
	popq	%r13
	.cfi_def_cfa_offset 8
	ret
.LVL38:
.L17:
	.cfi_restore_state
	.loc 2 84 5 discriminator 3 view .LVU83
	leaq	.LC6(%rip), %rcx
	movl	$84, %edx
	leaq	.LC1(%rip), %rsi
.LVL39:
	.loc 2 84 5 discriminator 3 view .LVU84
	leaq	.LC2(%rip), %rdi
.LVL40:
	.loc 2 84 5 discriminator 3 view .LVU85
	call	__assert_fail@PLT
.LVL41:
.L20:
.LBB470:
.LBB468:
.LBB467:
	.loc 2 73 22 view .LVU86
	call	__cxa_throw_bad_array_new_length@PLT
.LVL42:
.L33:
	.loc 2 76 18 view .LVU87
	movq	8(%rbx), %rdi
	.loc 2 76 9 view .LVU88
	testq	%rdi, %rdi
	je	.L25
	jmp	.L28
.LBE467:
.LBE468:
.LBE470:
	.cfi_endproc
.LFE4319:
	.size	_ZN10UniqueListIPN6Charon10FancyMagicEE6insertEiS2_, .-_ZN10UniqueListIPN6Charon10FancyMagicEE6insertEiS2_
	.section	.text._ZN12ReadOnlyListIPN6Charon10FancyMagicEE6insertEiS2_,"axG",@progbits,_ZN12ReadOnlyListIPN6Charon10FancyMagicEE6insertEiS2_,comdat
	.align 2
	.weak	_ZN12ReadOnlyListIPN6Charon10FancyMagicEE6insertEiS2_
	.type	_ZN12ReadOnlyListIPN6Charon10FancyMagicEE6insertEiS2_, @function
_ZN12ReadOnlyListIPN6Charon10FancyMagicEE6insertEiS2_:
.LVL43:
.LFB4310:
	.loc 1 70 6 is_stmt 1 view -0
	.cfi_startproc
	.loc 1 70 6 is_stmt 0 view .LVU90
	endbr64
	pushq	%rax
	.cfi_def_cfa_offset 16
	popq	%rax
	.cfi_def_cfa_offset 8
	subq	$8, %rsp
	.cfi_def_cfa_offset 16
	.loc 1 72 24 view .LVU91
	movl	$8, %edi
.LVL44:
	.loc 1 72 24 view .LVU92
	call	__cxa_allocate_exception@PLT
.LVL45:
	.loc 1 72 24 view .LVU93
	movq	%rax, %rdi
.LVL46:
.LBB471:
.LBI471:
	.file 3 "/usr/include/c++/9/bits/exception.h"
	.loc 3 63 5 is_stmt 1 view .LVU94
.LBB472:
	.loc 3 63 34 is_stmt 0 view .LVU95
	leaq	16+_ZTVSt9exception(%rip), %rax
.LVL47:
	.loc 3 63 34 view .LVU96
	movq	%rax, (%rdi)
.LVL48:
	.loc 3 63 34 view .LVU97
.LBE472:
.LBE471:
	.loc 1 72 24 view .LVU98
	movq	_ZNSt9exceptionD1Ev@GOTPCREL(%rip), %rdx
	leaq	_ZTISt9exception(%rip), %rsi
	call	__cxa_throw@PLT
.LVL49:
	.cfi_endproc
.LFE4310:
	.size	_ZN12ReadOnlyListIPN6Charon10FancyMagicEE6insertEiS2_, .-_ZN12ReadOnlyListIPN6Charon10FancyMagicEE6insertEiS2_
	.section	.text._ZN12ReadOnlyListIPN6Charon10FancyMagicEE3setEiS2_,"axG",@progbits,_ZN12ReadOnlyListIPN6Charon10FancyMagicEE3setEiS2_,comdat
	.align 2
	.weak	_ZN12ReadOnlyListIPN6Charon10FancyMagicEE3setEiS2_
	.type	_ZN12ReadOnlyListIPN6Charon10FancyMagicEE3setEiS2_, @function
_ZN12ReadOnlyListIPN6Charon10FancyMagicEE3setEiS2_:
.LVL50:
.LFB4309:
	.loc 1 65 6 is_stmt 1 view -0
	.cfi_startproc
	.loc 1 65 6 is_stmt 0 view .LVU100
	endbr64
	pushq	%rax
	.cfi_def_cfa_offset 16
	popq	%rax
	.cfi_def_cfa_offset 8
	subq	$8, %rsp
	.cfi_def_cfa_offset 16
	.loc 1 67 24 view .LVU101
	movl	$8, %edi
.LVL51:
	.loc 1 67 24 view .LVU102
	call	__cxa_allocate_exception@PLT
.LVL52:
	.loc 1 67 24 view .LVU103
	movq	%rax, %rdi
.LVL53:
.LBB473:
.LBI473:
	.loc 3 63 5 is_stmt 1 view .LVU104
.LBB474:
	.loc 3 63 34 is_stmt 0 view .LVU105
	leaq	16+_ZTVSt9exception(%rip), %rax
.LVL54:
	.loc 3 63 34 view .LVU106
	movq	%rax, (%rdi)
.LVL55:
	.loc 3 63 34 view .LVU107
.LBE474:
.LBE473:
	.loc 1 67 24 view .LVU108
	movq	_ZNSt9exceptionD1Ev@GOTPCREL(%rip), %rdx
	leaq	_ZTISt9exception(%rip), %rsi
	call	__cxa_throw@PLT
.LVL56:
	.cfi_endproc
.LFE4309:
	.size	_ZN12ReadOnlyListIPN6Charon10FancyMagicEE3setEiS2_, .-_ZN12ReadOnlyListIPN6Charon10FancyMagicEE3setEiS2_
	.section	.text._ZN12ReadOnlyListIPN6Charon10FancyMagicEE3addES2_,"axG",@progbits,_ZN12ReadOnlyListIPN6Charon10FancyMagicEE3addES2_,comdat
	.align 2
	.weak	_ZN12ReadOnlyListIPN6Charon10FancyMagicEE3addES2_
	.type	_ZN12ReadOnlyListIPN6Charon10FancyMagicEE3addES2_, @function
_ZN12ReadOnlyListIPN6Charon10FancyMagicEE3addES2_:
.LVL57:
.LFB4308:
	.loc 1 60 6 is_stmt 1 view -0
	.cfi_startproc
	.loc 1 60 6 is_stmt 0 view .LVU110
	endbr64
	pushq	%rax
	.cfi_def_cfa_offset 16
	popq	%rax
	.cfi_def_cfa_offset 8
	subq	$8, %rsp
	.cfi_def_cfa_offset 16
	.loc 1 62 24 view .LVU111
	movl	$8, %edi
.LVL58:
	.loc 1 62 24 view .LVU112
	call	__cxa_allocate_exception@PLT
.LVL59:
	.loc 1 62 24 view .LVU113
	movq	%rax, %rdi
.LVL60:
.LBB475:
.LBI475:
	.loc 3 63 5 is_stmt 1 view .LVU114
.LBB476:
	.loc 3 63 34 is_stmt 0 view .LVU115
	leaq	16+_ZTVSt9exception(%rip), %rax
.LVL61:
	.loc 3 63 34 view .LVU116
	movq	%rax, (%rdi)
.LVL62:
	.loc 3 63 34 view .LVU117
.LBE476:
.LBE475:
	.loc 1 62 24 view .LVU118
	movq	_ZNSt9exceptionD1Ev@GOTPCREL(%rip), %rdx
	leaq	_ZTISt9exception(%rip), %rsi
	call	__cxa_throw@PLT
.LVL63:
	.cfi_endproc
.LFE4308:
	.size	_ZN12ReadOnlyListIPN6Charon10FancyMagicEE3addES2_, .-_ZN12ReadOnlyListIPN6Charon10FancyMagicEE3addES2_
	.section	.text._ZN10UniqueListIPN6Charon10FancyMagicEE3addES2_,"axG",@progbits,_ZN10UniqueListIPN6Charon10FancyMagicEE3addES2_,comdat
	.align 2
	.weak	_ZN10UniqueListIPN6Charon10FancyMagicEE3addES2_
	.type	_ZN10UniqueListIPN6Charon10FancyMagicEE3addES2_, @function
_ZN10UniqueListIPN6Charon10FancyMagicEE3addES2_:
.LVL64:
.LFB3979:
	.loc 2 64 6 is_stmt 1 view -0
	.cfi_startproc
	.loc 2 64 6 is_stmt 0 view .LVU120
	endbr64
	pushq	%r12
	.cfi_def_cfa_offset 16
	.cfi_offset 12, -16
	pushq	%rbp
	.cfi_def_cfa_offset 24
	.cfi_offset 6, -24
	pushq	%rbx
	.cfi_def_cfa_offset 32
	.cfi_offset 3, -32
	movq	%rdi, %rbx
	movq	%rsi, %rbp
.LVL65:
.LBB482:
.LBI482:
	.loc 2 71 13 is_stmt 1 view .LVU121
.LBB483:
	.loc 2 72 23 is_stmt 0 view .LVU122
	movl	20(%rdi), %edi
.LVL66:
	.loc 2 72 5 view .LVU123
	cmpl	%edi, 16(%rbx)
	jl	.L41
.LBB484:
	.loc 2 73 39 view .LVU124
	addl	%edi, %edi
	.loc 2 73 22 view .LVU125
	movl	%edi, 20(%rbx)
	movslq	%edi, %rdi
	movabsq	$1152921504606846975, %rax
	cmpq	%rax, %rdi
	ja	.L42
	salq	$3, %rdi
	call	_Znam@PLT
.LVL67:
	.loc 2 73 22 view .LVU126
	movq	%rax, %r12
.LVL68:
.LBB485:
	.loc 2 74 26 is_stmt 1 view .LVU127
	.loc 2 74 28 is_stmt 0 view .LVU128
	movl	16(%rbx), %eax
.LVL69:
	.loc 2 74 26 view .LVU129
	testl	%eax, %eax
	jle	.L52
	.loc 2 75 23 view .LVU130
	movq	8(%rbx), %rsi
	leal	-1(%rax), %ecx
	movl	$0, %eax
.LVL70:
.L46:
	.loc 2 75 27 view .LVU131
	movq	(%rsi,%rax,8), %rdx
	.loc 2 75 13 view .LVU132
	movq	%rdx, (%r12,%rax,8)
	.loc 2 74 9 is_stmt 1 view .LVU133
.LVL71:
	.loc 2 74 26 view .LVU134
	movq	%rax, %rdx
	addq	$1, %rax
.LVL72:
	.loc 2 74 26 is_stmt 0 view .LVU135
	cmpq	%rdx, %rcx
	jne	.L46
.LBE485:
	.loc 2 76 18 view .LVU136
	movq	8(%rbx), %rdi
.L48:
	.loc 2 76 9 view .LVU137
	call	_ZdaPv@PLT
.LVL73:
.L47:
	.loc 2 77 9 view .LVU138
	movq	%r12, 8(%rbx)
.LVL74:
.L41:
	.loc 2 77 9 view .LVU139
.LBE484:
.LBE483:
.LBE482:
	.loc 2 67 5 view .LVU140
	movq	8(%rbx), %rdx
	.loc 2 67 10 view .LVU141
	movl	16(%rbx), %eax
	.loc 2 67 9 view .LVU142
	leal	1(%rax), %ecx
	movl	%ecx, 16(%rbx)
	cltq
	.loc 2 67 5 view .LVU143
	movq	%rbp, (%rdx,%rax,8)
	.loc 2 68 1 view .LVU144
	popq	%rbx
	.cfi_remember_state
	.cfi_def_cfa_offset 24
.LVL75:
	.loc 2 68 1 view .LVU145
	popq	%rbp
	.cfi_def_cfa_offset 16
.LVL76:
	.loc 2 68 1 view .LVU146
	popq	%r12
	.cfi_def_cfa_offset 8
	ret
.LVL77:
.L42:
	.cfi_restore_state
.LBB488:
.LBB487:
.LBB486:
	.loc 2 73 22 view .LVU147
	call	__cxa_throw_bad_array_new_length@PLT
.LVL78:
.L52:
	.loc 2 76 18 view .LVU148
	movq	8(%rbx), %rdi
	.loc 2 76 9 view .LVU149
	testq	%rdi, %rdi
	je	.L47
	jmp	.L48
.LBE486:
.LBE487:
.LBE488:
	.cfi_endproc
.LFE3979:
	.size	_ZN10UniqueListIPN6Charon10FancyMagicEE3addES2_, .-_ZN10UniqueListIPN6Charon10FancyMagicEE3addES2_
	.section	.rodata._ZN10UniqueListIPN6Charon10FancyMagicEE3setEiS2_.str1.8,"aMS",@progbits,1
	.align 8
.LC7:
	.string	"void UniqueList<T*>::set(int, T*) [with T = Charon::FancyMagic]"
	.section	.text._ZN10UniqueListIPN6Charon10FancyMagicEE3setEiS2_,"axG",@progbits,_ZN10UniqueListIPN6Charon10FancyMagicEE3setEiS2_,comdat
	.align 2
	.weak	_ZN10UniqueListIPN6Charon10FancyMagicEE3setEiS2_
	.type	_ZN10UniqueListIPN6Charon10FancyMagicEE3setEiS2_, @function
_ZN10UniqueListIPN6Charon10FancyMagicEE3setEiS2_:
.LVL79:
.LFB4318:
	.loc 2 92 6 is_stmt 1 view -0
	.cfi_startproc
	.loc 2 92 6 is_stmt 0 view .LVU151
	endbr64
	pushq	%r13
	.cfi_def_cfa_offset 16
	.cfi_offset 13, -16
	pushq	%r12
	.cfi_def_cfa_offset 24
	.cfi_offset 12, -24
	pushq	%rbp
	.cfi_def_cfa_offset 32
	.cfi_offset 6, -32
	pushq	%rbx
	.cfi_def_cfa_offset 40
	.cfi_offset 3, -40
	subq	$8, %rsp
	.cfi_def_cfa_offset 48
	.loc 2 94 5 view .LVU152
	testl	%esi, %esi
	js	.L54
	movq	%rdi, %rbx
	movl	%esi, %ebp
	movq	%rdx, %r12
	.loc 2 94 5 discriminator 1 view .LVU153
	movl	16(%rdi), %eax
	cmpl	%esi, %eax
	jle	.L54
.LVL80:
.LBB494:
.LBI494:
	.loc 2 71 13 is_stmt 1 view .LVU154
.LBB495:
	.loc 2 72 23 is_stmt 0 view .LVU155
	movl	20(%rdi), %edi
.LVL81:
	.loc 2 72 5 view .LVU156
	cmpl	%edi, %eax
	jl	.L56
.LBB496:
	.loc 2 73 39 view .LVU157
	addl	%edi, %edi
	.loc 2 73 22 view .LVU158
	movl	%edi, 20(%rbx)
	movslq	%edi, %rdi
	movabsq	$1152921504606846975, %rax
	cmpq	%rax, %rdi
	ja	.L57
	salq	$3, %rdi
	call	_Znam@PLT
.LVL82:
	.loc 2 73 22 view .LVU159
	movq	%rax, %r13
.LVL83:
.LBB497:
	.loc 2 74 26 is_stmt 1 view .LVU160
	.loc 2 74 28 is_stmt 0 view .LVU161
	movl	16(%rbx), %eax
.LVL84:
	.loc 2 74 26 view .LVU162
	testl	%eax, %eax
	jle	.L67
	.loc 2 75 23 view .LVU163
	movq	8(%rbx), %rsi
	leal	-1(%rax), %ecx
	movl	$0, %eax
.LVL85:
.L61:
	.loc 2 75 27 view .LVU164
	movq	(%rsi,%rax,8), %rdx
	.loc 2 75 13 view .LVU165
	movq	%rdx, 0(%r13,%rax,8)
	.loc 2 74 9 is_stmt 1 view .LVU166
.LVL86:
	.loc 2 74 26 view .LVU167
	movq	%rax, %rdx
	addq	$1, %rax
.LVL87:
	.loc 2 74 26 is_stmt 0 view .LVU168
	cmpq	%rdx, %rcx
	jne	.L61
.LBE497:
	.loc 2 76 18 view .LVU169
	movq	8(%rbx), %rdi
.L63:
	.loc 2 76 9 view .LVU170
	call	_ZdaPv@PLT
.LVL88:
.L62:
	.loc 2 77 9 view .LVU171
	movq	%r13, 8(%rbx)
.LVL89:
.L56:
	.loc 2 77 9 view .LVU172
.LBE496:
.LBE495:
.LBE494:
	.loc 2 96 10 view .LVU173
	movslq	%ebp, %rbp
	.loc 2 96 5 view .LVU174
	movq	8(%rbx), %rax
	movq	%r12, (%rax,%rbp,8)
	.loc 2 97 1 view .LVU175
	addq	$8, %rsp
	.cfi_remember_state
	.cfi_def_cfa_offset 40
	popq	%rbx
	.cfi_def_cfa_offset 32
.LVL90:
	.loc 2 97 1 view .LVU176
	popq	%rbp
	.cfi_def_cfa_offset 24
.LVL91:
	.loc 2 97 1 view .LVU177
	popq	%r12
	.cfi_def_cfa_offset 16
.LVL92:
	.loc 2 97 1 view .LVU178
	popq	%r13
	.cfi_def_cfa_offset 8
	ret
.LVL93:
.L54:
	.cfi_restore_state
	.loc 2 94 5 discriminator 3 view .LVU179
	leaq	.LC7(%rip), %rcx
	movl	$94, %edx
.LVL94:
	.loc 2 94 5 discriminator 3 view .LVU180
	leaq	.LC1(%rip), %rsi
.LVL95:
	.loc 2 94 5 discriminator 3 view .LVU181
	leaq	.LC2(%rip), %rdi
.LVL96:
	.loc 2 94 5 discriminator 3 view .LVU182
	call	__assert_fail@PLT
.LVL97:
.L57:
.LBB500:
.LBB499:
.LBB498:
	.loc 2 73 22 view .LVU183
	call	__cxa_throw_bad_array_new_length@PLT
.LVL98:
.L67:
	.loc 2 76 18 view .LVU184
	movq	8(%rbx), %rdi
	.loc 2 76 9 view .LVU185
	testq	%rdi, %rdi
	je	.L62
	jmp	.L63
.LBE498:
.LBE499:
.LBE500:
	.cfi_endproc
.LFE4318:
	.size	_ZN10UniqueListIPN6Charon10FancyMagicEE3setEiS2_, .-_ZN10UniqueListIPN6Charon10FancyMagicEE3setEiS2_
	.section	.text._ZN12ReadOnlyListIPN6Charon10FancyMagicEED2Ev,"axG",@progbits,_ZN12ReadOnlyListIPN6Charon10FancyMagicEED5Ev,comdat
	.align 2
	.weak	_ZN12ReadOnlyListIPN6Charon10FancyMagicEED2Ev
	.type	_ZN12ReadOnlyListIPN6Charon10FancyMagicEED2Ev, @function
_ZN12ReadOnlyListIPN6Charon10FancyMagicEED2Ev:
.LVL99:
.LFB4315:
	.loc 1 92 1 is_stmt 1 view -0
	.cfi_startproc
	.loc 1 92 1 is_stmt 0 view .LVU187
	endbr64
.LBB505:
	.loc 1 94 1 view .LVU188
	leaq	16+_ZTV12ReadOnlyListIPN6Charon10FancyMagicEE(%rip), %rax
	movq	%rax, (%rdi)
	.loc 1 93 12 view .LVU189
	movq	8(%rdi), %rdi
.LVL100:
	.loc 1 93 5 view .LVU190
	testq	%rdi, %rdi
	je	.L71
.LBE505:
	.loc 1 92 1 discriminator 1 view .LVU191
	subq	$8, %rsp
	.cfi_def_cfa_offset 16
.LBB507:
	.loc 1 93 5 discriminator 1 view .LVU192
	movq	(%rdi), %rax
	call	*56(%rax)
.LVL101:
.LBB506:
.LBI506:
	.loc 1 17 7 is_stmt 1 discriminator 1 view .LVU193
	.loc 1 17 7 is_stmt 0 discriminator 1 view .LVU194
.LBE506:
.LBE507:
	.loc 1 94 1 discriminator 1 view .LVU195
	addq	$8, %rsp
	.cfi_def_cfa_offset 8
	ret
.L71:
	ret
	.cfi_endproc
.LFE4315:
	.size	_ZN12ReadOnlyListIPN6Charon10FancyMagicEED2Ev, .-_ZN12ReadOnlyListIPN6Charon10FancyMagicEED2Ev
	.weak	_ZN12ReadOnlyListIPN6Charon10FancyMagicEED1Ev
	.set	_ZN12ReadOnlyListIPN6Charon10FancyMagicEED1Ev,_ZN12ReadOnlyListIPN6Charon10FancyMagicEED2Ev
	.section	.text._ZN12ReadOnlyListIPN6Charon10FancyMagicEED0Ev,"axG",@progbits,_ZN12ReadOnlyListIPN6Charon10FancyMagicEED5Ev,comdat
	.align 2
	.weak	_ZN12ReadOnlyListIPN6Charon10FancyMagicEED0Ev
	.type	_ZN12ReadOnlyListIPN6Charon10FancyMagicEED0Ev, @function
_ZN12ReadOnlyListIPN6Charon10FancyMagicEED0Ev:
.LVL102:
.LFB4317:
	.loc 1 92 1 is_stmt 1 view -0
	.cfi_startproc
	.loc 1 92 1 is_stmt 0 view .LVU197
	endbr64
	pushq	%rbx
	.cfi_def_cfa_offset 16
	.cfi_offset 3, -16
	movq	%rdi, %rbx
	.loc 1 94 1 view .LVU198
	call	_ZN12ReadOnlyListIPN6Charon10FancyMagicEED1Ev
.LVL103:
	.loc 1 94 1 view .LVU199
	movl	$16, %esi
	movq	%rbx, %rdi
	call	_ZdlPvm@PLT
.LVL104:
	popq	%rbx
	.cfi_def_cfa_offset 8
.LVL105:
	.loc 1 94 1 view .LVU200
	ret
	.cfi_endproc
.LFE4317:
	.size	_ZN12ReadOnlyListIPN6Charon10FancyMagicEED0Ev, .-_ZN12ReadOnlyListIPN6Charon10FancyMagicEED0Ev
	.section	.rodata.str1.8,"aMS",@progbits,1
	.align 8
.LC8:
	.string	"void Charon::Witchcraft::destroy()"
	.section	.rodata.str1.1,"aMS",@progbits,1
.LC9:
	.string	"ChaosMagic.cpp"
.LC10:
	.string	"initialized"
	.text
	.globl	_ZN6Charon10Witchcraft7destroyEv
	.type	_ZN6Charon10Witchcraft7destroyEv, @function
_ZN6Charon10Witchcraft7destroyEv:
.LFB3652:
	.file 4 "ChaosMagic.cpp"
	.loc 4 329 24 is_stmt 1 view -0
	.cfi_startproc
	endbr64
	subq	$8, %rsp
	.cfi_def_cfa_offset 16
	.loc 4 330 13 view .LVU202
	.loc 4 331 13 view .LVU203
.LVL106:
.LBB520:
.LBI520:
	.file 5 "/usr/include/c++/9/bits/std_mutex.h"
	.loc 5 158 16 view .LVU204
.LBB521:
.LBI521:
	.loc 5 98 5 view .LVU205
.LBB522:
	.loc 5 100 7 view .LVU206
.LBB523:
.LBI523:
	.file 6 "/usr/include/x86_64-linux-gnu/c++/9/bits/gthr-default.h"
	.loc 6 746 1 view .LVU207
.LBB524:
	.loc 6 748 3 view .LVU208
.LBB525:
.LBI525:
	.loc 6 248 1 view .LVU209
.LBE525:
.LBE524:
.LBE523:
.LBE522:
.LBE521:
.LBE520:
	.loc 6 250 3 view .LVU210
	.loc 6 252 3 view .LVU211
.LBB532:
.LBB530:
.LBB528:
.LBB527:
.LBB526:
	.loc 6 748 3 is_stmt 0 view .LVU212
	cmpq	$0, _ZL28__gthrw___pthread_key_createPjPFvPvE@GOTPCREL(%rip)
	je	.L77
	.loc 6 749 5 is_stmt 1 view .LVU213
	.loc 6 749 41 is_stmt 0 view .LVU214
	leaq	_ZN6Charon10Witchcraft12_GLOBAL__N_111InitControl1mE(%rip), %rdi
	call	_ZL26__gthrw_pthread_mutex_lockP15pthread_mutex_t@PLT
.LVL107:
	.loc 6 749 41 view .LVU215
.LBE526:
.LBE527:
	.loc 5 103 7 is_stmt 1 view .LVU216
	testl	%eax, %eax
	jne	.L83
.LVL108:
.L77:
	.loc 5 103 7 is_stmt 0 view .LVU217
.LBE528:
.LBE530:
.LBE532:
	.loc 4 332 13 is_stmt 1 view .LVU218
	cmpb	$0, _ZN6Charon10Witchcraft12_GLOBAL__N_111InitControl11initializedE(%rip)
	je	.L84
	.loc 4 333 13 view .LVU219
	.loc 4 333 20 is_stmt 0 view .LVU220
	movq	_ZN6Charon10Witchcraft12_GLOBAL__N_120RookAttackWitchcraftE(%rip), %rdi
	.loc 4 333 40 view .LVU221
	testq	%rdi, %rdi
	je	.L79
	.loc 4 333 20 discriminator 1 view .LVU222
	movq	(%rdi), %rax
	call	*56(%rax)
.LVL109:
.L79:
	.loc 4 334 13 is_stmt 1 view .LVU223
	.loc 4 334 20 is_stmt 0 view .LVU224
	movq	_ZN6Charon10Witchcraft12_GLOBAL__N_122BishopAttackWitchcraftE(%rip), %rdi
	.loc 4 334 42 view .LVU225
	testq	%rdi, %rdi
	je	.L80
	.loc 4 334 20 discriminator 1 view .LVU226
	movq	(%rdi), %rax
	call	*56(%rax)
.LVL110:
.L80:
	.loc 4 335 13 is_stmt 1 view .LVU227
	.loc 4 335 25 is_stmt 0 view .LVU228
	movb	$0, _ZN6Charon10Witchcraft12_GLOBAL__N_111InitControl11initializedE(%rip)
.LVL111:
.LBB533:
.LBI533:
	.loc 5 164 7 is_stmt 1 view .LVU229
.LBB534:
.LBI534:
	.loc 5 115 5 view .LVU230
.LBE534:
.LBE533:
	.loc 5 118 7 view .LVU231
.LBB542:
.LBB540:
.LBB535:
.LBI535:
	.loc 6 776 1 view .LVU232
.LBB536:
	.loc 6 778 3 view .LVU233
.LBB537:
.LBI537:
	.loc 6 248 1 view .LVU234
.LBE537:
.LBE536:
.LBE535:
.LBE540:
.LBE542:
	.loc 6 250 3 view .LVU235
	.loc 6 252 3 view .LVU236
.LBB543:
.LBB541:
.LBB539:
.LBB538:
	.loc 6 778 3 is_stmt 0 view .LVU237
	cmpq	$0, _ZL28__gthrw___pthread_key_createPjPFvPvE@GOTPCREL(%rip)
	je	.L76
	.loc 6 779 5 is_stmt 1 view .LVU238
	.loc 6 779 43 is_stmt 0 view .LVU239
	leaq	_ZN6Charon10Witchcraft12_GLOBAL__N_111InitControl1mE(%rip), %rdi
	call	_ZL28__gthrw_pthread_mutex_unlockP15pthread_mutex_t@PLT
.LVL112:
.L76:
	.loc 6 779 43 view .LVU240
.LBE538:
.LBE539:
.LBE541:
.LBE543:
	.loc 4 336 9 view .LVU241
	addq	$8, %rsp
	.cfi_remember_state
	.cfi_def_cfa_offset 8
	ret
.LVL113:
.L83:
	.cfi_restore_state
.LBB544:
.LBB531:
.LBB529:
	.loc 5 104 2 is_stmt 1 view .LVU242
	.loc 5 104 22 is_stmt 0 view .LVU243
	movl	%eax, %edi
	call	_ZSt20__throw_system_errori@PLT
.LVL114:
.L84:
	.loc 5 104 22 view .LVU244
.LBE529:
.LBE531:
.LBE544:
	.loc 4 332 13 discriminator 1 view .LVU245
	leaq	.LC8(%rip), %rcx
	movl	$332, %edx
	leaq	.LC9(%rip), %rsi
	leaq	.LC10(%rip), %rdi
	call	__assert_fail@PLT
.LVL115:
	.cfi_endproc
.LFE3652:
	.size	_ZN6Charon10Witchcraft7destroyEv, .-_ZN6Charon10Witchcraft7destroyEv
	.globl	_ZN6Charon10Witchcraft11attackBoardILNS_9PieceTypeE1EEEmmi
	.type	_ZN6Charon10Witchcraft11attackBoardILNS_9PieceTypeE1EEEmmi, @function
_ZN6Charon10Witchcraft11attackBoardILNS_9PieceTypeE1EEEmmi:
.LVL116:
.LFB3653:
	.loc 4 344 9 is_stmt 1 view -0
	.cfi_startproc
	.loc 4 344 9 is_stmt 0 view .LVU247
	endbr64
	pushq	%rbx
	.cfi_def_cfa_offset 16
	.cfi_offset 3, -16
	movq	%rdi, %rbx
	.loc 4 344 11 is_stmt 1 view .LVU248
	.loc 4 344 57 is_stmt 0 view .LVU249
	movq	_ZN6Charon10Witchcraft12_GLOBAL__N_120RookAttackWitchcraftE(%rip), %rdi
.LVL117:
	.loc 4 344 44 view .LVU250
	movq	(%rdi), %rax
	.loc 4 344 57 view .LVU251
	call	*40(%rax)
.LVL118:
.LBB545:
.LBI545:
	.loc 4 402 21 is_stmt 1 view .LVU252
.LBB546:
	.loc 4 404 9 view .LVU253
.LBB547:
.LBI547:
	.loc 4 440 16 view .LVU254
.LBB548:
	.loc 4 443 7 view .LVU255
	.loc 4 443 26 is_stmt 0 view .LVU256
	andq	24(%rax), %rbx
.LVL119:
	.loc 4 443 31 view .LVU257
	imulq	16(%rax), %rbx
	.loc 4 443 37 view .LVU258
	movl	8(%rax), %ecx
	shrq	%cl, %rbx
.LBE548:
.LBE547:
	.loc 4 405 30 view .LVU259
	movslq	%ebx, %rbx
	.loc 4 408 14 view .LVU260
	movq	(%rax), %rax
.LBE546:
.LBE545:
	.loc 4 344 63 view .LVU261
	movq	(%rax,%rbx,8), %rax
	.loc 4 344 66 view .LVU262
	popq	%rbx
	.cfi_def_cfa_offset 8
	ret
	.cfi_endproc
.LFE3653:
	.size	_ZN6Charon10Witchcraft11attackBoardILNS_9PieceTypeE1EEEmmi, .-_ZN6Charon10Witchcraft11attackBoardILNS_9PieceTypeE1EEEmmi
	.globl	_ZN6Charon10Witchcraft11attackBoardILNS_9PieceTypeE2EEEmmi
	.type	_ZN6Charon10Witchcraft11attackBoardILNS_9PieceTypeE2EEEmmi, @function
_ZN6Charon10Witchcraft11attackBoardILNS_9PieceTypeE2EEEmmi:
.LVL120:
.LFB3654:
	.loc 4 348 9 is_stmt 1 view -0
	.cfi_startproc
	.loc 4 348 9 is_stmt 0 view .LVU264
	endbr64
	.loc 4 348 11 is_stmt 1 view .LVU265
	.loc 4 348 42 is_stmt 0 view .LVU266
	movslq	%esi, %rsi
	.loc 4 348 42 view .LVU267
	leaq	_ZN6Charon10WitchcraftL21SquareToKnightAttacksE(%rip), %rax
	movq	(%rax,%rsi,8), %rax
	.loc 4 348 45 view .LVU268
	ret
	.cfi_endproc
.LFE3654:
	.size	_ZN6Charon10Witchcraft11attackBoardILNS_9PieceTypeE2EEEmmi, .-_ZN6Charon10Witchcraft11attackBoardILNS_9PieceTypeE2EEEmmi
	.globl	_ZN6Charon10Witchcraft11attackBoardILNS_9PieceTypeE3EEEmmi
	.type	_ZN6Charon10Witchcraft11attackBoardILNS_9PieceTypeE3EEEmmi, @function
_ZN6Charon10Witchcraft11attackBoardILNS_9PieceTypeE3EEEmmi:
.LVL121:
.LFB3655:
	.loc 4 352 9 is_stmt 1 view -0
	.cfi_startproc
	.loc 4 352 9 is_stmt 0 view .LVU270
	endbr64
	pushq	%rbx
	.cfi_def_cfa_offset 16
	.cfi_offset 3, -16
	movq	%rdi, %rbx
	.loc 4 352 11 is_stmt 1 view .LVU271
	.loc 4 352 59 is_stmt 0 view .LVU272
	movq	_ZN6Charon10Witchcraft12_GLOBAL__N_122BishopAttackWitchcraftE(%rip), %rdi
.LVL122:
	.loc 4 352 46 view .LVU273
	movq	(%rdi), %rax
	.loc 4 352 59 view .LVU274
	call	*40(%rax)
.LVL123:
.LBB549:
.LBI549:
	.loc 4 402 21 is_stmt 1 view .LVU275
.LBB550:
	.loc 4 404 9 view .LVU276
.LBB551:
.LBI551:
	.loc 4 440 16 view .LVU277
.LBB552:
	.loc 4 443 7 view .LVU278
	.loc 4 443 26 is_stmt 0 view .LVU279
	andq	24(%rax), %rbx
.LVL124:
	.loc 4 443 31 view .LVU280
	imulq	16(%rax), %rbx
	.loc 4 443 37 view .LVU281
	movl	8(%rax), %ecx
	shrq	%cl, %rbx
.LBE552:
.LBE551:
	.loc 4 405 30 view .LVU282
	movslq	%ebx, %rbx
	.loc 4 408 14 view .LVU283
	movq	(%rax), %rax
.LBE550:
.LBE549:
	.loc 4 352 65 view .LVU284
	movq	(%rax,%rbx,8), %rax
	.loc 4 352 68 view .LVU285
	popq	%rbx
	.cfi_def_cfa_offset 8
	ret
	.cfi_endproc
.LFE3655:
	.size	_ZN6Charon10Witchcraft11attackBoardILNS_9PieceTypeE3EEEmmi, .-_ZN6Charon10Witchcraft11attackBoardILNS_9PieceTypeE3EEEmmi
	.globl	_ZN6Charon10Witchcraft11attackBoardILNS_9PieceTypeE4EEEmmi
	.type	_ZN6Charon10Witchcraft11attackBoardILNS_9PieceTypeE4EEEmmi, @function
_ZN6Charon10Witchcraft11attackBoardILNS_9PieceTypeE4EEEmmi:
.LVL125:
.LFB3656:
	.loc 4 356 9 is_stmt 1 view -0
	.cfi_startproc
	.loc 4 356 9 is_stmt 0 view .LVU287
	endbr64
	pushq	%r12
	.cfi_def_cfa_offset 16
	.cfi_offset 12, -16
	pushq	%rbp
	.cfi_def_cfa_offset 24
	.cfi_offset 6, -24
	pushq	%rbx
	.cfi_def_cfa_offset 32
	.cfi_offset 3, -32
	movq	%rdi, %rbx
	movl	%esi, %r12d
	.loc 4 356 11 is_stmt 1 view .LVU288
	.loc 4 356 57 is_stmt 0 view .LVU289
	movq	_ZN6Charon10Witchcraft12_GLOBAL__N_120RookAttackWitchcraftE(%rip), %rdi
.LVL126:
	.loc 4 356 44 view .LVU290
	movq	(%rdi), %rax
	.loc 4 356 57 view .LVU291
	call	*40(%rax)
.LVL127:
.LBB553:
.LBI553:
	.loc 4 402 21 is_stmt 1 view .LVU292
.LBB554:
	.loc 4 404 9 view .LVU293
.LBB555:
.LBI555:
	.loc 4 440 16 view .LVU294
.LBB556:
	.loc 4 443 7 view .LVU295
	.loc 4 443 26 is_stmt 0 view .LVU296
	movq	%rbx, %rdx
	andq	24(%rax), %rdx
	.loc 4 443 31 view .LVU297
	imulq	16(%rax), %rdx
	.loc 4 443 37 view .LVU298
	movl	8(%rax), %ecx
	shrq	%cl, %rdx
.LBE556:
.LBE555:
	.loc 4 405 30 view .LVU299
	movslq	%edx, %rdx
	.loc 4 408 14 view .LVU300
	movq	(%rax), %rax
.LVL128:
	.loc 4 408 14 view .LVU301
	movq	(%rax,%rdx,8), %rbp
.LVL129:
	.loc 4 408 14 view .LVU302
.LBE554:
.LBE553:
	.loc 4 357 59 view .LVU303
	movq	_ZN6Charon10Witchcraft12_GLOBAL__N_122BishopAttackWitchcraftE(%rip), %rdi
	.loc 4 357 46 view .LVU304
	movq	(%rdi), %rax
	.loc 4 357 59 view .LVU305
	movl	%r12d, %esi
	call	*40(%rax)
.LVL130:
.LBB557:
.LBI557:
	.loc 4 402 21 is_stmt 1 view .LVU306
.LBB558:
	.loc 4 404 9 view .LVU307
.LBB559:
.LBI559:
	.loc 4 440 16 view .LVU308
.LBB560:
	.loc 4 443 7 view .LVU309
	.loc 4 443 26 is_stmt 0 view .LVU310
	andq	24(%rax), %rbx
.LVL131:
	.loc 4 443 31 view .LVU311
	imulq	16(%rax), %rbx
	.loc 4 443 37 view .LVU312
	movl	8(%rax), %ecx
	shrq	%cl, %rbx
.LBE560:
.LBE559:
	.loc 4 405 30 view .LVU313
	movslq	%ebx, %rbx
	.loc 4 408 14 view .LVU314
	movq	(%rax), %rax
.LBE558:
.LBE557:
	.loc 4 357 65 view .LVU315
	orq	(%rax,%rbx,8), %rbp
	movq	%rbp, %rax
	.loc 4 357 68 view .LVU316
	popq	%rbx
	.cfi_def_cfa_offset 24
	popq	%rbp
	.cfi_def_cfa_offset 16
	popq	%r12
	.cfi_def_cfa_offset 8
.LVL132:
	.loc 4 357 68 view .LVU317
	ret
	.cfi_endproc
.LFE3656:
	.size	_ZN6Charon10Witchcraft11attackBoardILNS_9PieceTypeE4EEEmmi, .-_ZN6Charon10Witchcraft11attackBoardILNS_9PieceTypeE4EEEmmi
	.globl	_ZN6Charon10Witchcraft11attackBoardILNS_9PieceTypeE5EEEmmi
	.type	_ZN6Charon10Witchcraft11attackBoardILNS_9PieceTypeE5EEEmmi, @function
_ZN6Charon10Witchcraft11attackBoardILNS_9PieceTypeE5EEEmmi:
.LVL133:
.LFB3657:
	.loc 4 361 9 is_stmt 1 view -0
	.cfi_startproc
	.loc 4 361 9 is_stmt 0 view .LVU319
	endbr64
	.loc 4 361 11 is_stmt 1 view .LVU320
	.loc 4 361 40 is_stmt 0 view .LVU321
	movslq	%esi, %rsi
	.loc 4 361 40 view .LVU322
	leaq	_ZN6Charon10WitchcraftL19SquareToKingAttacksE(%rip), %rax
	movq	(%rax,%rsi,8), %rax
	.loc 4 361 43 view .LVU323
	ret
	.cfi_endproc
.LFE3657:
	.size	_ZN6Charon10Witchcraft11attackBoardILNS_9PieceTypeE5EEEmmi, .-_ZN6Charon10Witchcraft11attackBoardILNS_9PieceTypeE5EEEmmi
	.align 2
	.globl	_ZN6Charon10FancyMagicC2ERKNS0_7BuilderE
	.type	_ZN6Charon10FancyMagicC2ERKNS0_7BuilderE, @function
_ZN6Charon10FancyMagicC2ERKNS0_7BuilderE:
.LVL134:
.LFB3660:
	.loc 4 387 5 is_stmt 1 view -0
	.cfi_startproc
	.loc 4 387 5 is_stmt 0 view .LVU325
	endbr64
	pushq	%r13
	.cfi_def_cfa_offset 16
	.cfi_offset 13, -16
	pushq	%r12
	.cfi_def_cfa_offset 24
	.cfi_offset 12, -24
	pushq	%rbp
	.cfi_def_cfa_offset 32
	.cfi_offset 6, -32
	pushq	%rbx
	.cfi_def_cfa_offset 40
	.cfi_offset 3, -40
	subq	$8, %rsp
	.cfi_def_cfa_offset 48
	movq	%rdi, %rbp
.LBB565:
	.loc 4 389 51 view .LVU326
	movl	(%rsi), %r13d
	.loc 4 389 40 view .LVU327
	movq	8(%rsi), %r12
.LVL135:
.LBB566:
.LBI566:
	.loc 4 423 28 is_stmt 1 view .LVU328
.LBB567:
	.loc 4 426 9 view .LVU329
	.loc 4 426 42 is_stmt 0 view .LVU330
	movslq	%r13d, %rdi
.LVL136:
	.loc 4 426 46 view .LVU331
	movabsq	$1152921504606846975, %rax
	cmpq	%rax, %rdi
	ja	.L94
	movq	%rsi, %rbx
	salq	$3, %rdi
	call	_Znam@PLT
.LVL137:
	.loc 4 427 9 is_stmt 1 view .LVU332
.LBB568:
	.loc 4 427 26 view .LVU333
	leal	-1(%r13), %esi
	movl	$0, %edx
	testl	%r13d, %r13d
	jle	.L95
.LVL138:
.L97:
	.loc 4 428 13 view .LVU334
	.loc 4 428 39 is_stmt 0 view .LVU335
	movq	(%r12,%rdx,8), %rcx
	.loc 4 428 28 view .LVU336
	movq	%rcx, (%rax,%rdx,8)
	.loc 4 427 9 is_stmt 1 view .LVU337
.LVL139:
	.loc 4 427 26 view .LVU338
	movq	%rdx, %rcx
	addq	$1, %rdx
.LVL140:
	.loc 4 427 26 is_stmt 0 view .LVU339
	cmpq	%rsi, %rcx
	jne	.L97
.L95:
	.loc 4 427 26 view .LVU340
.LBE568:
	.loc 4 429 9 is_stmt 1 view .LVU341
.LVL141:
	.loc 4 429 9 is_stmt 0 view .LVU342
.LBE567:
.LBE566:
	.loc 4 392 24 view .LVU343
	movq	%rax, 0(%rbp)
	movl	16(%rbx), %eax
.LVL142:
	.loc 4 392 24 view .LVU344
	movl	%eax, 8(%rbp)
	movq	24(%rbx), %rax
	movq	%rax, 16(%rbp)
	movq	32(%rbx), %rax
	movq	%rax, 24(%rbp)
.LBE565:
	.loc 4 393 8 view .LVU345
	addq	$8, %rsp
	.cfi_remember_state
	.cfi_def_cfa_offset 40
	popq	%rbx
	.cfi_def_cfa_offset 32
.LVL143:
	.loc 4 393 8 view .LVU346
	popq	%rbp
	.cfi_def_cfa_offset 24
.LVL144:
	.loc 4 393 8 view .LVU347
	popq	%r12
	.cfi_def_cfa_offset 16
	popq	%r13
	.cfi_def_cfa_offset 8
	ret
.LVL145:
.L94:
	.cfi_restore_state
.LBB571:
.LBB570:
.LBB569:
	.loc 4 426 46 view .LVU348
	call	__cxa_throw_bad_array_new_length@PLT
.LVL146:
	.loc 4 426 46 view .LVU349
.LBE569:
.LBE570:
.LBE571:
	.cfi_endproc
.LFE3660:
	.size	_ZN6Charon10FancyMagicC2ERKNS0_7BuilderE, .-_ZN6Charon10FancyMagicC2ERKNS0_7BuilderE
	.globl	_ZN6Charon10FancyMagicC1ERKNS0_7BuilderE
	.set	_ZN6Charon10FancyMagicC1ERKNS0_7BuilderE,_ZN6Charon10FancyMagicC2ERKNS0_7BuilderE
	.align 2
	.globl	_ZN6Charon10FancyMagicD2Ev
	.type	_ZN6Charon10FancyMagicD2Ev, @function
_ZN6Charon10FancyMagicD2Ev:
.LVL147:
.LFB3664:
	.loc 4 412 5 is_stmt 1 view -0
	.cfi_startproc
	.loc 4 412 5 is_stmt 0 view .LVU351
	endbr64
.LBB572:
	.loc 4 413 7 is_stmt 1 view .LVU352
	.loc 4 413 16 is_stmt 0 view .LVU353
	movq	(%rdi), %rdi
.LVL148:
	.loc 4 413 28 view .LVU354
	testq	%rdi, %rdi
	je	.L104
.LBE572:
	.loc 4 412 5 discriminator 1 view .LVU355
	subq	$8, %rsp
	.cfi_def_cfa_offset 16
.LBB573:
	.loc 4 413 16 discriminator 1 view .LVU356
	call	_ZdaPv@PLT
.LVL149:
.LBE573:
	.loc 4 413 30 discriminator 1 view .LVU357
	addq	$8, %rsp
	.cfi_def_cfa_offset 8
	ret
.L104:
	ret
	.cfi_endproc
.LFE3664:
	.size	_ZN6Charon10FancyMagicD2Ev, .-_ZN6Charon10FancyMagicD2Ev
	.globl	_ZN6Charon10FancyMagicD1Ev
	.set	_ZN6Charon10FancyMagicD1Ev,_ZN6Charon10FancyMagicD2Ev
	.section	.text._ZN10UniqueListIPN6Charon10FancyMagicEED2Ev,"axG",@progbits,_ZN10UniqueListIPN6Charon10FancyMagicEED5Ev,comdat
	.align 2
	.weak	_ZN10UniqueListIPN6Charon10FancyMagicEED2Ev
	.type	_ZN10UniqueListIPN6Charon10FancyMagicEED2Ev, @function
_ZN10UniqueListIPN6Charon10FancyMagicEED2Ev:
.LVL150:
.LFB4324:
	.loc 2 119 1 is_stmt 1 view -0
	.cfi_startproc
	.loc 2 119 1 is_stmt 0 view .LVU359
	endbr64
	pushq	%r12
	.cfi_def_cfa_offset 16
	.cfi_offset 12, -16
	pushq	%rbp
	.cfi_def_cfa_offset 24
	.cfi_offset 6, -24
	pushq	%rbx
	.cfi_def_cfa_offset 32
	.cfi_offset 3, -32
	movq	%rdi, %r12
.LBB581:
	.loc 2 126 1 view .LVU360
	leaq	16+_ZTV10UniqueListIPN6Charon10FancyMagicEE(%rip), %rax
	movq	%rax, (%rdi)
.LVL151:
.LBB582:
.LBB583:
	.loc 2 120 22 is_stmt 1 view .LVU361
	cmpl	$0, 16(%rdi)
	jle	.L108
	movl	$0, %ebx
	jmp	.L110
.LVL152:
.L114:
.LBB584:
	.loc 2 121 15 is_stmt 0 discriminator 1 view .LVU362
	movq	%rbp, %rdi
	call	_ZN6Charon10FancyMagicD1Ev
.LVL153:
	movl	$32, %esi
	movq	%rbp, %rdi
	call	_ZdlPvm@PLT
.LVL154:
.L109:
.LBE584:
	.loc 2 120 5 is_stmt 1 discriminator 2 view .LVU363
	.loc 2 120 22 discriminator 2 view .LVU364
	addq	$1, %rbx
.LVL155:
	.loc 2 120 22 is_stmt 0 discriminator 2 view .LVU365
	cmpl	%ebx, 16(%r12)
	jle	.L108
.L110:
.LVL156:
.LBB585:
	.loc 2 121 26 view .LVU366
	movq	8(%r12), %rax
	movq	(%rax,%rbx,8), %rbp
	.loc 2 121 15 view .LVU367
	testq	%rbp, %rbp
	jne	.L114
	jmp	.L109
.LVL157:
.L108:
	.loc 2 121 15 view .LVU368
.LBE585:
.LBE583:
	.loc 2 125 14 view .LVU369
	movq	8(%r12), %rdi
	.loc 2 125 5 view .LVU370
	testq	%rdi, %rdi
	je	.L107
	.loc 2 125 5 discriminator 1 view .LVU371
	call	_ZdaPv@PLT
.LVL158:
	.loc 2 125 5 discriminator 1 view .LVU372
.LBE582:
.LBB586:
.LBI586:
	.loc 1 17 7 is_stmt 1 discriminator 1 view .LVU373
.L107:
	.loc 1 17 7 is_stmt 0 discriminator 1 view .LVU374
.LBE586:
.LBE581:
	.loc 2 126 1 view .LVU375
	popq	%rbx
	.cfi_def_cfa_offset 24
	popq	%rbp
	.cfi_def_cfa_offset 16
	popq	%r12
	.cfi_def_cfa_offset 8
.LVL159:
	.loc 2 126 1 view .LVU376
	ret
	.cfi_endproc
.LFE4324:
	.size	_ZN10UniqueListIPN6Charon10FancyMagicEED2Ev, .-_ZN10UniqueListIPN6Charon10FancyMagicEED2Ev
	.weak	_ZN10UniqueListIPN6Charon10FancyMagicEED1Ev
	.set	_ZN10UniqueListIPN6Charon10FancyMagicEED1Ev,_ZN10UniqueListIPN6Charon10FancyMagicEED2Ev
	.section	.text._ZN10UniqueListIPN6Charon10FancyMagicEED0Ev,"axG",@progbits,_ZN10UniqueListIPN6Charon10FancyMagicEED5Ev,comdat
	.align 2
	.weak	_ZN10UniqueListIPN6Charon10FancyMagicEED0Ev
	.type	_ZN10UniqueListIPN6Charon10FancyMagicEED0Ev, @function
_ZN10UniqueListIPN6Charon10FancyMagicEED0Ev:
.LVL160:
.LFB4326:
	.loc 2 119 1 is_stmt 1 view -0
	.cfi_startproc
	.loc 2 119 1 is_stmt 0 view .LVU378
	endbr64
	pushq	%rbx
	.cfi_def_cfa_offset 16
	.cfi_offset 3, -16
	movq	%rdi, %rbx
	.loc 2 126 1 view .LVU379
	call	_ZN10UniqueListIPN6Charon10FancyMagicEED1Ev
.LVL161:
	.loc 2 126 1 view .LVU380
	movl	$24, %esi
	movq	%rbx, %rdi
	call	_ZdlPvm@PLT
.LVL162:
	popq	%rbx
	.cfi_def_cfa_offset 8
.LVL163:
	.loc 2 126 1 view .LVU381
	ret
	.cfi_endproc
.LFE4326:
	.size	_ZN10UniqueListIPN6Charon10FancyMagicEED0Ev, .-_ZN10UniqueListIPN6Charon10FancyMagicEED0Ev
	.text
	.align 2
	.globl	_ZN6Charon10FancyMagic7BuilderC2Ei
	.type	_ZN6Charon10FancyMagic7BuilderC2Ei, @function
_ZN6Charon10FancyMagic7BuilderC2Ei:
.LVL164:
.LFB3669:
	.loc 4 450 5 is_stmt 1 view -0
	.cfi_startproc
	.loc 4 450 5 is_stmt 0 view .LVU383
	endbr64
	pushq	%rbx
	.cfi_def_cfa_offset 16
	.cfi_offset 3, -16
	movq	%rdi, %rbx
.LBB587:
	.loc 4 456 19 view .LVU384
	movl	%esi, (%rdi)
	.loc 4 453 34 view .LVU385
	movslq	%esi, %rdi
.LVL165:
	.loc 4 453 38 view .LVU386
	movabsq	$1152921504606846975, %rax
	cmpq	%rax, %rdi
	ja	.L118
	.loc 4 453 38 discriminator 1 view .LVU387
	salq	$3, %rdi
	call	_Znam@PLT
.LVL166:
	.loc 4 456 19 discriminator 1 view .LVU388
	movq	%rax, 8(%rbx)
	movl	$0, 16(%rbx)
	movq	$0, 24(%rbx)
	movq	$0, 32(%rbx)
.LBE587:
	.loc 4 457 8 discriminator 1 view .LVU389
	popq	%rbx
	.cfi_remember_state
	.cfi_def_cfa_offset 8
.LVL167:
	.loc 4 457 8 discriminator 1 view .LVU390
	ret
.LVL168:
.L118:
	.cfi_restore_state
.LBB588:
	.loc 4 453 38 discriminator 2 view .LVU391
	call	__cxa_throw_bad_array_new_length@PLT
.LVL169:
	.loc 4 453 38 discriminator 2 view .LVU392
.LBE588:
	.cfi_endproc
.LFE3669:
	.size	_ZN6Charon10FancyMagic7BuilderC2Ei, .-_ZN6Charon10FancyMagic7BuilderC2Ei
	.globl	_ZN6Charon10FancyMagic7BuilderC1Ei
	.set	_ZN6Charon10FancyMagic7BuilderC1Ei,_ZN6Charon10FancyMagic7BuilderC2Ei
	.align 2
	.globl	_ZN6Charon10FancyMagic7BuilderD2Ev
	.type	_ZN6Charon10FancyMagic7BuilderD2Ev, @function
_ZN6Charon10FancyMagic7BuilderD2Ev:
.LVL170:
.LFB3677:
	.loc 4 525 5 is_stmt 1 view -0
	.cfi_startproc
	.loc 4 525 5 is_stmt 0 view .LVU394
	endbr64
.LBB589:
	.loc 4 526 7 is_stmt 1 view .LVU395
	.loc 4 526 16 is_stmt 0 view .LVU396
	movq	8(%rdi), %rdi
.LVL171:
	.loc 4 526 23 view .LVU397
	testq	%rdi, %rdi
	je	.L124
.LBE589:
	.loc 4 525 5 discriminator 1 view .LVU398
	subq	$8, %rsp
	.cfi_def_cfa_offset 16
.LBB590:
	.loc 4 526 16 discriminator 1 view .LVU399
	call	_ZdaPv@PLT
.LVL172:
.LBE590:
	.loc 4 526 25 discriminator 1 view .LVU400
	addq	$8, %rsp
	.cfi_def_cfa_offset 8
	ret
.L124:
	ret
	.cfi_endproc
.LFE3677:
	.size	_ZN6Charon10FancyMagic7BuilderD2Ev, .-_ZN6Charon10FancyMagic7BuilderD2Ev
	.globl	_ZN6Charon10FancyMagic7BuilderD1Ev
	.set	_ZN6Charon10FancyMagic7BuilderD1Ev,_ZN6Charon10FancyMagic7BuilderD2Ev
	.section	.rodata.str1.8
	.align 8
.LC11:
	.string	"Charon::FancyMagic::Builder& Charon::FancyMagic::Builder::placeAttacks(uint64_t, uint64_t)"
	.section	.rodata.str1.1
.LC12:
	.string	"x >= 0 && x < size"
	.text
	.type	_ZN6Charon10Witchcraft12_GLOBAL__N_115initFancyMagicsEPKNS_9DirectionEPKmS6_PKs, @function
_ZN6Charon10Witchcraft12_GLOBAL__N_115initFancyMagicsEPKNS_9DirectionEPKmS6_PKs:
.LVL173:
.LFB3644:
	.loc 4 161 55 is_stmt 1 view -0
	.cfi_startproc
	.cfi_personality 0x9b,DW.ref.__gxx_personality_v0
	.cfi_lsda 0x1b,.LLSDA3644
	.loc 4 161 55 is_stmt 0 view .LVU402
	pushq	%r15
	.cfi_def_cfa_offset 16
	.cfi_offset 15, -16
	pushq	%r14
	.cfi_def_cfa_offset 24
	.cfi_offset 14, -24
	pushq	%r13
	.cfi_def_cfa_offset 32
	.cfi_offset 13, -32
	pushq	%r12
	.cfi_def_cfa_offset 40
	.cfi_offset 12, -40
	pushq	%rbp
	.cfi_def_cfa_offset 48
	.cfi_offset 6, -48
	pushq	%rbx
	.cfi_def_cfa_offset 56
	.cfi_offset 3, -56
	subq	$104, %rsp
	.cfi_def_cfa_offset 160
	movq	%rdi, (%rsp)
	movq	%rsi, 24(%rsp)
	movq	%rdx, 32(%rsp)
	movq	%rcx, 40(%rsp)
	.loc 4 161 55 view .LVU403
	movq	%fs:40, %rax
	movq	%rax, 88(%rsp)
	xorl	%eax, %eax
	.loc 4 163 17 is_stmt 1 view .LVU404
	.loc 4 164 64 is_stmt 0 view .LVU405
	movl	$24, %edi
.LVL174:
.LEHB0:
	.loc 4 164 64 view .LVU406
	call	_Znwm@PLT
.LVL175:
.LEHE0:
	.loc 4 164 64 view .LVU407
	movq	%rax, %rbx
	movq	%rax, 16(%rsp)
.LVL176:
.LBB629:
.LBI629:
	.loc 2 56 1 is_stmt 1 view .LVU408
.LBB630:
.LBB631:
.LBI631:
	.loc 1 17 7 view .LVU409
	.loc 1 17 7 is_stmt 0 view .LVU410
.LBE631:
	.loc 2 57 26 view .LVU411
	leaq	16+_ZTV10UniqueListIPN6Charon10FancyMagicEE(%rip), %rax
.LVL177:
	.loc 2 57 26 view .LVU412
	movq	%rax, (%rbx)
	.loc 2 59 12 view .LVU413
	movl	$64, 20(%rbx)
	movl	$512, %edi
.LEHB1:
	call	_Znam@PLT
.LVL178:
.LEHE1:
	.loc 2 59 5 view .LVU414
	movq	%rax, 8(%rbx)
	.loc 2 60 5 view .LVU415
	movl	$0, 16(%rbx)
.LVL179:
	.loc 2 60 5 view .LVU416
.LBE630:
.LBE629:
.LBB633:
	.loc 4 167 38 is_stmt 1 view .LVU417
.LBE633:
.LBB678:
.LBB632:
	.loc 2 60 5 is_stmt 0 view .LVU418
	movq	$0, 8(%rsp)
	leaq	_ZN6Charon10WitchcraftL16SquareToBitBoardE(%rip), %rbp
	jmp	.L138
.LVL180:
.L128:
	.loc 2 60 5 view .LVU419
.LBE632:
.LBE678:
.LBB679:
.LBB634:
.LBB635:
.LBB636:
	.loc 4 208 25 is_stmt 1 discriminator 2 view .LVU420
	.loc 4 208 43 discriminator 2 view .LVU421
	addq	$1, %rcx
.LVL181:
	.loc 4 208 43 is_stmt 0 discriminator 2 view .LVU422
	cmpq	%r14, %rcx
	je	.L151
.LVL182:
.L131:
.LBB637:
	.loc 4 209 29 is_stmt 1 view .LVU423
	.loc 4 209 57 is_stmt 0 view .LVU424
	movzbl	(%rcx), %eax
	.loc 4 209 41 view .LVU425
	movsbl	%al, %edi
.LVL183:
	.loc 4 209 41 view .LVU426
	movsbq	%al, %rsi
	salq	$3, %rsi
	leal	(%rdi,%rbx), %edx
	movslq	%edx, %rdx
	leaq	0(%rbp,%rdx,8), %r8
	movl	%r13d, %r9d
.LBB638:
.LBB639:
	.file 7 "ChaosMagic.h"
	.loc 7 536 53 view .LVU427
	movl	%eax, %edx
	sarb	$7, %dl
	xorl	%edx, %eax
	subl	%edx, %eax
.LVL184:
.L130:
	.loc 7 536 53 view .LVU428
.LBE639:
.LBE638:
	.loc 4 210 29 is_stmt 1 view .LVU429
	.loc 4 211 29 view .LVU430
	.loc 4 212 33 view .LVU431
.LBB649:
.LBI638:
	.loc 7 532 21 view .LVU432
.LBB648:
	.loc 7 534 13 view .LVU433
	.loc 7 534 23 is_stmt 0 view .LVU434
	leal	(%r9,%rdi), %r15d
.LVL185:
	.loc 7 535 13 is_stmt 1 view .LVU435
	.loc 7 535 39 is_stmt 0 view .LVU436
	cmpl	$63, %r15d
	ja	.L128
.LVL186:
.LBB640:
.LBI640:
	.loc 7 510 20 is_stmt 1 view .LVU437
.LBB641:
	.loc 7 511 11 view .LVU438
	.loc 7 511 11 is_stmt 0 view .LVU439
.LBE641:
.LBE640:
.LBB643:
.LBI643:
	.loc 7 510 20 is_stmt 1 view .LVU440
.LBB644:
	.loc 7 511 11 view .LVU441
	.loc 7 511 11 is_stmt 0 view .LVU442
.LBE644:
.LBE643:
.LBB646:
.LBB642:
	.loc 7 511 35 view .LVU443
	movl	%r15d, %edx
	andl	$7, %edx
.LBE642:
.LBE646:
.LBB647:
.LBB645:
	andl	$7, %r9d
.LVL187:
	.loc 7 511 35 view .LVU444
.LBE645:
.LBE647:
	.loc 7 536 31 view .LVU445
	subl	%r9d, %edx
	.loc 7 536 20 view .LVU446
	movl	%edx, %r9d
	sarl	$31, %r9d
	xorl	%r9d, %edx
	subl	%r9d, %edx
	.loc 7 535 39 view .LVU447
	cmpl	$1, %edx
	jle	.L129
	.loc 7 536 53 view .LVU448
	cmpb	$8, %al
	jne	.L128
.L129:
.LVL188:
	.loc 7 536 53 view .LVU449
.LBE648:
.LBE649:
	.loc 4 214 33 is_stmt 1 view .LVU450
	.loc 4 214 50 is_stmt 0 view .LVU451
	movq	(%r8), %rdx
.LVL189:
	.loc 4 214 45 view .LVU452
	orq	%rdx, %r11
.LVL190:
	.loc 4 218 57 is_stmt 1 view .LVU453
	addq	%rsi, %r8
	testq	%rdx, %r10
	jne	.L128
	.loc 4 216 43 is_stmt 0 view .LVU454
	movl	%r15d, %r9d
	jmp	.L130
.LVL191:
.L151:
	.loc 4 216 43 view .LVU455
.LBE637:
.LBE636:
	.loc 4 224 25 is_stmt 1 view .LVU456
.LBB651:
.LBI651:
	.loc 4 503 5 view .LVU457
.LBB652:
	.loc 4 506 9 view .LVU458
.LBB653:
.LBI653:
	.loc 4 440 16 view .LVU459
.LBB654:
	.loc 4 443 7 view .LVU460
	.loc 4 443 26 is_stmt 0 view .LVU461
	movq	%r10, %rax
	andq	80(%rsp), %rax
	.loc 4 443 31 view .LVU462
	imulq	72(%rsp), %rax
	.loc 4 443 37 view .LVU463
	movl	64(%rsp), %ecx
	shrq	%cl, %rax
.LVL192:
	.loc 4 443 37 view .LVU464
.LBE654:
.LBE653:
	.loc 4 510 9 is_stmt 1 view .LVU465
	testl	%eax, %eax
	js	.L132
	.loc 4 510 9 is_stmt 0 view .LVU466
	cmpl	48(%rsp), %eax
	jge	.L132
	.loc 4 511 9 is_stmt 1 view .LVU467
	.loc 4 511 17 is_stmt 0 view .LVU468
	cltq
	.loc 4 511 20 view .LVU469
	movq	56(%rsp), %rdx
	movq	%r11, (%rdx,%rax,8)
	.loc 4 512 9 is_stmt 1 view .LVU470
.LVL193:
	.loc 4 512 9 is_stmt 0 view .LVU471
.LBE652:
.LBE651:
	.loc 4 243 25 is_stmt 1 view .LVU472
	.loc 4 243 54 is_stmt 0 view .LVU473
	subq	%r12, %r10
.LVL194:
	.loc 4 243 54 view .LVU474
.LBE635:
	.loc 4 244 43 is_stmt 1 view .LVU475
	andq	%r12, %r10
.LVL195:
	.loc 4 244 43 is_stmt 0 view .LVU476
	je	.L152
.LVL196:
.L134:
	.loc 4 194 21 is_stmt 1 view .LVU477
.LBB659:
	.loc 4 207 25 view .LVU478
	.loc 4 208 25 view .LVU479
.LBB656:
	.loc 4 208 43 view .LVU480
	movq	(%rsp), %rcx
.LBE656:
	.loc 4 207 34 is_stmt 0 view .LVU481
	movl	$0, %r11d
	jmp	.L131
.LVL197:
.L132:
.LBB657:
.LBB655:
	.loc 4 510 9 view .LVU482
	leaq	.LC11(%rip), %rcx
	movl	$510, %edx
	leaq	.LC9(%rip), %rsi
	leaq	.LC12(%rip), %rdi
.LVL198:
	.loc 4 510 9 view .LVU483
	call	__assert_fail@PLT
.LVL199:
.L152:
	.loc 4 510 9 view .LVU484
.LBE655:
.LBE657:
.LBE659:
	.loc 4 248 21 is_stmt 1 view .LVU485
.LBB660:
.LBI660:
	.loc 4 521 5 view .LVU486
.LBB661:
	.loc 4 522 7 view .LVU487
	.loc 4 522 34 is_stmt 0 view .LVU488
	movl	$32, %edi
.LVL200:
.LEHB2:
	.loc 4 522 34 view .LVU489
	call	_Znwm@PLT
.LVL201:
.LEHE2:
	.loc 4 522 34 view .LVU490
	movq	%rax, %rbx
.LVL202:
	.loc 4 522 34 view .LVU491
	leaq	48(%rsp), %rsi
.LVL203:
	.loc 4 522 34 view .LVU492
	movq	%rax, %rdi
.LEHB3:
	call	_ZN6Charon10FancyMagicC1ERKNS0_7BuilderE
.LVL204:
.LEHE3:
	.loc 4 522 34 view .LVU493
.LBE661:
.LBE660:
	.loc 4 248 38 view .LVU494
	movq	%rbx, %rsi
	movq	16(%rsp), %rdi
.LEHB4:
	call	_ZN10UniqueListIPN6Charon10FancyMagicEE3addES2_
.LVL205:
.LEHE4:
	jmp	.L153
.LVL206:
.L144:
	.loc 4 248 38 view .LVU495
	endbr64
	movq	%rax, %rbp
.LBB663:
.LBB662:
	.loc 4 522 34 view .LVU496
	movl	$32, %esi
	movq	%rbx, %rdi
	call	_ZdlPvm@PLT
.LVL207:
.L137:
	.loc 4 522 34 view .LVU497
.LBE662:
.LBE663:
	.loc 4 174 63 view .LVU498
	leaq	48(%rsp), %rdi
	call	_ZN6Charon10FancyMagic7BuilderD1Ev
.LVL208:
	movq	%rbp, %rdi
.LEHB5:
	call	_Unwind_Resume@PLT
.LVL209:
.L153:
	.loc 4 174 63 discriminator 2 view .LVU499
	leaq	48(%rsp), %rdi
	call	_ZN6Charon10FancyMagic7BuilderD1Ev
.LVL210:
.LBE634:
	.loc 4 167 17 is_stmt 1 discriminator 2 view .LVU500
	.loc 4 167 38 discriminator 2 view .LVU501
	addq	$1, 8(%rsp)
.LVL211:
	.loc 4 167 38 is_stmt 0 discriminator 2 view .LVU502
	movq	8(%rsp), %rax
	cmpq	$64, %rax
	je	.L154
.LVL212:
.L138:
	.loc 4 167 38 discriminator 2 view .LVU503
	movq	8(%rsp), %r15
	movl	%r15d, %ebx
.LVL213:
.LBB677:
	.loc 4 170 21 is_stmt 1 view .LVU504
	.loc 4 170 30 is_stmt 0 view .LVU505
	movq	24(%rsp), %rax
	movq	(%rax,%r15,8), %r12
.LVL214:
	.loc 4 174 21 is_stmt 1 view .LVU506
	.loc 4 174 63 is_stmt 0 view .LVU507
	movq	40(%rsp), %rax
	movswl	(%rax,%r15,2), %esi
	leaq	48(%rsp), %rdi
	call	_ZN6Charon10FancyMagic7BuilderC1Ei
.LVL215:
	.loc 4 176 21 is_stmt 1 view .LVU508
.LBB664:
.LBI664:
	.loc 4 479 5 view .LVU509
.LBB665:
	.loc 4 481 7 view .LVU510
	.loc 4 481 12 is_stmt 0 view .LVU511
	movq	%r12, 80(%rsp)
	.loc 4 481 25 is_stmt 1 view .LVU512
.LVL216:
	.loc 4 481 25 is_stmt 0 view .LVU513
.LBE665:
.LBE664:
.LBB666:
.LBI666:
	.loc 7 562 20 is_stmt 1 view .LVU514
.LBB667:
	.loc 7 564 13 view .LVU515
	.loc 7 565 20 is_stmt 0 view .LVU516
	movq	%r12, %rax
	shrq	%rax
	.loc 7 564 22 view .LVU517
	movabsq	$8608480567731124087, %rsi
	andq	%rsi, %rax
.LVL217:
	.loc 7 566 13 is_stmt 1 view .LVU518
	.loc 7 566 15 is_stmt 0 view .LVU519
	movq	%r12, %rdx
	subq	%rax, %rdx
.LVL218:
	.loc 7 567 13 is_stmt 1 view .LVU520
	.loc 7 567 20 is_stmt 0 view .LVU521
	shrq	%rax
.LVL219:
	.loc 7 567 15 view .LVU522
	andq	%rsi, %rax
.LVL220:
	.loc 7 568 13 is_stmt 1 view .LVU523
	.loc 7 568 15 is_stmt 0 view .LVU524
	subq	%rax, %rdx
.LVL221:
	.loc 7 569 13 is_stmt 1 view .LVU525
	.loc 7 569 20 is_stmt 0 view .LVU526
	shrq	%rax
.LVL222:
	.loc 7 570 13 is_stmt 1 view .LVU527
	.loc 7 569 15 is_stmt 0 view .LVU528
	andq	%rsi, %rax
.LVL223:
	.loc 7 570 15 view .LVU529
	subq	%rax, %rdx
.LVL224:
	.loc 7 572 13 is_stmt 1 view .LVU530
	.loc 7 572 25 is_stmt 0 view .LVU531
	movq	%rdx, %rax
.LVL225:
	.loc 7 572 25 view .LVU532
	shrq	$4, %rax
	.loc 7 572 20 view .LVU533
	addq	%rdx, %rax
	.loc 7 572 15 view .LVU534
	movabsq	$1085102592571150095, %rdi
	andq	%rdi, %rax
.LVL226:
	.loc 7 574 13 is_stmt 1 view .LVU535
	.loc 7 575 13 view .LVU536
	.loc 7 575 13 is_stmt 0 view .LVU537
.LBE667:
.LBE666:
.LBB669:
.LBI669:
	.loc 4 490 5 is_stmt 1 view .LVU538
.LBB670:
	.loc 4 492 7 view .LVU539
.LBE670:
.LBE669:
.LBB672:
.LBB668:
	.loc 7 574 15 is_stmt 0 view .LVU540
	movabsq	$72340172838076673, %rdi
	imulq	%rdi, %rax
.LVL227:
	.loc 7 575 36 view .LVU541
	shrq	$56, %rax
.LVL228:
	.loc 7 575 36 view .LVU542
.LBE668:
.LBE672:
	.loc 4 183 25 view .LVU543
	movl	$64, %edx
.LVL229:
	.loc 4 183 25 view .LVU544
	subl	%eax, %edx
	movl	%edx, 64(%rsp)
.LBB673:
.LBB671:
	.loc 4 492 33 is_stmt 1 view .LVU545
.LVL230:
	.loc 4 492 33 is_stmt 0 view .LVU546
.LBE671:
.LBE673:
.LBB674:
.LBI674:
	.loc 4 467 5 is_stmt 1 view .LVU547
.LBB675:
	.loc 4 469 7 view .LVU548
	.loc 4 469 19 is_stmt 0 view .LVU549
	movq	32(%rsp), %rax
	movq	(%rax,%r15,8), %rax
	movq	%rax, 72(%rsp)
	.loc 4 469 34 is_stmt 1 view .LVU550
.LVL231:
	.loc 4 469 34 is_stmt 0 view .LVU551
.LBE675:
.LBE674:
	.loc 4 193 21 is_stmt 1 view .LVU552
	.loc 4 193 30 is_stmt 0 view .LVU553
	movl	$0, %r10d
	movq	(%rsp), %rax
	leaq	4(%rax), %r14
.LBB676:
.LBB658:
.LBB650:
	.loc 4 209 41 view .LVU554
	movl	%r15d, %r13d
	jmp	.L134
.LVL232:
.L154:
	.loc 4 209 41 view .LVU555
.LBE650:
.LBE658:
.LBE676:
.LBE677:
.LBE679:
	.loc 4 251 17 is_stmt 1 view .LVU556
.LBB680:
.LBI680:
	.loc 1 106 11 view .LVU557
.LBB681:
	.loc 1 108 10 is_stmt 0 view .LVU558
	movl	$16, %edi
	call	_Znwm@PLT
.LVL233:
.LBB682:
.LBI682:
	.loc 1 54 1 is_stmt 1 view .LVU559
.LBB683:
.LBB684:
.LBI684:
	.loc 1 17 7 view .LVU560
	.loc 1 17 7 is_stmt 0 view .LVU561
.LBE684:
	.loc 1 56 20 view .LVU562
	leaq	16+_ZTV12ReadOnlyListIPN6Charon10FancyMagicEE(%rip), %rdi
	movq	%rdi, (%rax)
	movq	16(%rsp), %rdi
	movq	%rdi, 8(%rax)
.LVL234:
	.loc 1 56 20 view .LVU563
.LBE683:
.LBE682:
.LBE681:
.LBE680:
	.loc 4 253 13 view .LVU564
	movq	88(%rsp), %rdi
	xorq	%fs:40, %rdi
	jne	.L155
	addq	$104, %rsp
	.cfi_remember_state
	.cfi_def_cfa_offset 56
.LVL235:
	.loc 4 253 13 view .LVU565
	popq	%rbx
	.cfi_def_cfa_offset 48
	popq	%rbp
	.cfi_def_cfa_offset 40
	popq	%r12
	.cfi_def_cfa_offset 32
.LVL236:
	.loc 4 253 13 view .LVU566
	popq	%r13
	.cfi_def_cfa_offset 24
	popq	%r14
	.cfi_def_cfa_offset 16
	popq	%r15
	.cfi_def_cfa_offset 8
	ret
.LVL237:
.L142:
	.cfi_restore_state
	.loc 4 253 13 view .LVU567
	endbr64
	movq	%rax, %rbx
.LVL238:
	.loc 4 164 64 view .LVU568
	movl	$24, %esi
	movq	16(%rsp), %rdi
	call	_ZdlPvm@PLT
.LVL239:
	movq	%rbx, %rdi
	call	_Unwind_Resume@PLT
.LVL240:
.LEHE5:
.L143:
	.loc 4 164 64 view .LVU569
	endbr64
	movq	%rax, %rbp
	jmp	.L137
.LVL241:
.L155:
	.loc 4 253 13 view .LVU570
	call	__stack_chk_fail@PLT
.LVL242:
	.cfi_endproc
.LFE3644:
	.globl	__gxx_personality_v0
	.section	.gcc_except_table,"a",@progbits
.LLSDA3644:
	.byte	0xff
	.byte	0xff
	.byte	0x1
	.uleb128 .LLSDACSE3644-.LLSDACSB3644
.LLSDACSB3644:
	.uleb128 .LEHB0-.LFB3644
	.uleb128 .LEHE0-.LEHB0
	.uleb128 0
	.uleb128 0
	.uleb128 .LEHB1-.LFB3644
	.uleb128 .LEHE1-.LEHB1
	.uleb128 .L142-.LFB3644
	.uleb128 0
	.uleb128 .LEHB2-.LFB3644
	.uleb128 .LEHE2-.LEHB2
	.uleb128 .L143-.LFB3644
	.uleb128 0
	.uleb128 .LEHB3-.LFB3644
	.uleb128 .LEHE3-.LEHB3
	.uleb128 .L144-.LFB3644
	.uleb128 0
	.uleb128 .LEHB4-.LFB3644
	.uleb128 .LEHE4-.LEHB4
	.uleb128 .L143-.LFB3644
	.uleb128 0
	.uleb128 .LEHB5-.LFB3644
	.uleb128 .LEHE5-.LEHB5
	.uleb128 0
	.uleb128 0
.LLSDACSE3644:
	.text
	.size	_ZN6Charon10Witchcraft12_GLOBAL__N_115initFancyMagicsEPKNS_9DirectionEPKmS6_PKs, .-_ZN6Charon10Witchcraft12_GLOBAL__N_115initFancyMagicsEPKNS_9DirectionEPKmS6_PKs
	.section	.rodata.str1.8
	.align 8
.LC13:
	.string	"void Charon::Witchcraft::init()"
	.section	.rodata.str1.1
.LC14:
	.string	"!initialized"
	.text
	.globl	_ZN6Charon10Witchcraft4initEv
	.type	_ZN6Charon10Witchcraft4initEv, @function
_ZN6Charon10Witchcraft4initEv:
.LFB3651:
	.loc 4 313 21 is_stmt 1 view -0
	.cfi_startproc
	.cfi_personality 0x9b,DW.ref.__gxx_personality_v0
	.cfi_lsda 0x1b,.LLSDA3651
	endbr64
	pushq	%rbx
	.cfi_def_cfa_offset 16
	.cfi_offset 3, -16
	.loc 4 314 13 view .LVU572
	.loc 4 315 13 view .LVU573
.LVL243:
.LBB702:
.LBI702:
	.loc 5 158 16 view .LVU574
.LBB703:
.LBI703:
	.loc 5 98 5 view .LVU575
.LBB704:
	.loc 5 100 7 view .LVU576
.LBB705:
.LBI705:
	.loc 6 746 1 view .LVU577
.LBB706:
	.loc 6 748 3 view .LVU578
.LBB707:
.LBI707:
	.loc 6 248 1 view .LVU579
.LBE707:
.LBE706:
.LBE705:
.LBE704:
.LBE703:
.LBE702:
	.loc 6 250 3 view .LVU580
	.loc 6 252 3 view .LVU581
.LBB714:
.LBB712:
.LBB710:
.LBB709:
.LBB708:
	.loc 6 748 3 is_stmt 0 view .LVU582
	cmpq	$0, _ZL28__gthrw___pthread_key_createPjPFvPvE@GOTPCREL(%rip)
	je	.L157
	.loc 6 749 5 is_stmt 1 view .LVU583
	.loc 6 749 41 is_stmt 0 view .LVU584
	leaq	_ZN6Charon10Witchcraft12_GLOBAL__N_111InitControl1mE(%rip), %rdi
	call	_ZL26__gthrw_pthread_mutex_lockP15pthread_mutex_t@PLT
.LVL244:
	.loc 6 749 41 view .LVU585
.LBE708:
.LBE709:
	.loc 5 103 7 is_stmt 1 view .LVU586
	testl	%eax, %eax
	jne	.L164
.LVL245:
.L157:
	.loc 5 103 7 is_stmt 0 view .LVU587
.LBE710:
.LBE712:
.LBE714:
	.loc 4 316 13 is_stmt 1 view .LVU588
	cmpb	$0, _ZN6Charon10Witchcraft12_GLOBAL__N_111InitControl11initializedE(%rip)
	jne	.L165
	.loc 4 317 13 view .LVU589
	.loc 4 317 51 is_stmt 0 view .LVU590
	leaq	_ZN6Charon10WitchcraftL14FancyRookSizesE(%rip), %rcx
	leaq	_ZN6Charon10Witchcraft12_GLOBAL__N_1L16RookMagicNumbersE(%rip), %rdx
	leaq	_ZN6Charon10WitchcraftL23SquareToRookBlockerMaskE(%rip), %rsi
	leaq	_ZN6Charon10WitchcraftL14RookDirectionsE(%rip), %rdi
.LEHB6:
	call	_ZN6Charon10Witchcraft12_GLOBAL__N_115initFancyMagicsEPKNS_9DirectionEPKmS6_PKs
.LVL246:
.LEHE6:
	jmp	.L166
.LVL247:
.L164:
.LBB715:
.LBB713:
.LBB711:
	.loc 5 104 2 is_stmt 1 view .LVU591
	.loc 5 104 22 is_stmt 0 view .LVU592
	movl	%eax, %edi
.LEHB7:
	call	_ZSt20__throw_system_errori@PLT
.LVL248:
.LEHE7:
.L165:
	.loc 5 104 22 view .LVU593
.LBE711:
.LBE713:
.LBE715:
	.loc 4 316 13 discriminator 1 view .LVU594
	leaq	.LC13(%rip), %rcx
	movl	$316, %edx
	leaq	.LC9(%rip), %rsi
	leaq	.LC14(%rip), %rdi
	call	__assert_fail@PLT
.LVL249:
.L166:
	.loc 4 317 34 view .LVU595
	movq	%rax, _ZN6Charon10Witchcraft12_GLOBAL__N_120RookAttackWitchcraftE(%rip)
	.loc 4 321 13 is_stmt 1 view .LVU596
	.loc 4 321 53 is_stmt 0 view .LVU597
	leaq	_ZN6Charon10WitchcraftL16FancyBishopSizesE(%rip), %rcx
	leaq	_ZN6Charon10Witchcraft12_GLOBAL__N_1L18BishopMagicNumbersE(%rip), %rdx
	leaq	_ZN6Charon10WitchcraftL25SquareToBishopBlockerMaskE(%rip), %rsi
	leaq	_ZN6Charon10WitchcraftL16BishopDirectionsE(%rip), %rdi
.LEHB8:
	call	_ZN6Charon10Witchcraft12_GLOBAL__N_115initFancyMagicsEPKNS_9DirectionEPKmS6_PKs
.LVL250:
.LEHE8:
	.loc 4 321 36 discriminator 1 view .LVU598
	movq	%rax, _ZN6Charon10Witchcraft12_GLOBAL__N_122BishopAttackWitchcraftE(%rip)
	.loc 4 325 13 is_stmt 1 discriminator 1 view .LVU599
	.loc 4 325 25 is_stmt 0 discriminator 1 view .LVU600
	movb	$1, _ZN6Charon10Witchcraft12_GLOBAL__N_111InitControl11initializedE(%rip)
.LVL251:
.LBB716:
.LBI716:
	.loc 5 164 7 is_stmt 1 discriminator 1 view .LVU601
.LBB717:
.LBI717:
	.loc 5 115 5 discriminator 1 view .LVU602
.LBE717:
.LBE716:
	.loc 5 118 7 discriminator 1 view .LVU603
.LBB725:
.LBB723:
.LBB718:
.LBI718:
	.loc 6 776 1 discriminator 1 view .LVU604
.LBB719:
	.loc 6 778 3 discriminator 1 view .LVU605
.LBB720:
.LBI720:
	.loc 6 248 1 discriminator 1 view .LVU606
.LBE720:
.LBE719:
.LBE718:
.LBE723:
.LBE725:
	.loc 6 250 3 discriminator 1 view .LVU607
	.loc 6 252 3 discriminator 1 view .LVU608
.LBB726:
.LBB724:
.LBB722:
.LBB721:
	.loc 6 778 3 is_stmt 0 discriminator 1 view .LVU609
	cmpq	$0, _ZL28__gthrw___pthread_key_createPjPFvPvE@GOTPCREL(%rip)
	je	.L156
	.loc 6 779 5 is_stmt 1 view .LVU610
	.loc 6 779 43 is_stmt 0 view .LVU611
	leaq	_ZN6Charon10Witchcraft12_GLOBAL__N_111InitControl1mE(%rip), %rdi
	call	_ZL28__gthrw_pthread_mutex_unlockP15pthread_mutex_t@PLT
.LVL252:
.L156:
	.loc 6 779 43 view .LVU612
.LBE721:
.LBE722:
.LBE724:
.LBE726:
	.loc 4 326 9 view .LVU613
	popq	%rbx
	.cfi_remember_state
	.cfi_def_cfa_offset 8
	ret
.LVL253:
.L162:
	.cfi_restore_state
	.loc 4 326 9 view .LVU614
	endbr64
	movq	%rax, %rbx
.LVL254:
.LBB727:
.LBI727:
	.loc 5 164 7 is_stmt 1 view .LVU615
.LBB728:
.LBI728:
	.loc 5 115 5 view .LVU616
.LBE728:
.LBE727:
	.loc 5 118 7 view .LVU617
.LBB736:
.LBB734:
.LBB729:
.LBI729:
	.loc 6 776 1 view .LVU618
.LBB730:
	.loc 6 778 3 view .LVU619
.LBB731:
.LBI731:
	.loc 6 248 1 view .LVU620
.LBE731:
.LBE730:
.LBE729:
.LBE734:
.LBE736:
	.loc 6 250 3 view .LVU621
	.loc 6 252 3 view .LVU622
.LBB737:
.LBB735:
.LBB733:
.LBB732:
	.loc 6 778 3 is_stmt 0 view .LVU623
	cmpq	$0, _ZL28__gthrw___pthread_key_createPjPFvPvE@GOTPCREL(%rip)
	je	.L161
	.loc 6 779 5 is_stmt 1 view .LVU624
	.loc 6 779 43 is_stmt 0 view .LVU625
	leaq	_ZN6Charon10Witchcraft12_GLOBAL__N_111InitControl1mE(%rip), %rdi
	call	_ZL28__gthrw_pthread_mutex_unlockP15pthread_mutex_t@PLT
.LVL255:
.L161:
	.loc 6 779 43 view .LVU626
	movq	%rbx, %rdi
.LEHB9:
	call	_Unwind_Resume@PLT
.LVL256:
.LEHE9:
.LBE732:
.LBE733:
.LBE735:
.LBE737:
	.cfi_endproc
.LFE3651:
	.section	.gcc_except_table
.LLSDA3651:
	.byte	0xff
	.byte	0xff
	.byte	0x1
	.uleb128 .LLSDACSE3651-.LLSDACSB3651
.LLSDACSB3651:
	.uleb128 .LEHB6-.LFB3651
	.uleb128 .LEHE6-.LEHB6
	.uleb128 .L162-.LFB3651
	.uleb128 0
	.uleb128 .LEHB7-.LFB3651
	.uleb128 .LEHE7-.LEHB7
	.uleb128 0
	.uleb128 0
	.uleb128 .LEHB8-.LFB3651
	.uleb128 .LEHE8-.LEHB8
	.uleb128 .L162-.LFB3651
	.uleb128 0
	.uleb128 .LEHB9-.LFB3651
	.uleb128 .LEHE9-.LEHB9
	.uleb128 0
	.uleb128 0
.LLSDACSE3651:
	.text
	.size	_ZN6Charon10Witchcraft4initEv, .-_ZN6Charon10Witchcraft4initEv
	.section	.rodata._ZNSt7__cxx1112basic_stringIcSt11char_traitsIcESaIcEE9_M_createERmm.str1.1,"aMS",@progbits,1
.LC15:
	.string	"basic_string::_M_create"
	.section	.text._ZNSt7__cxx1112basic_stringIcSt11char_traitsIcESaIcEE9_M_createERmm,"axG",@progbits,_ZNSt7__cxx1112basic_stringIcSt11char_traitsIcESaIcEE9_M_createERmm,comdat
	.align 2
	.weak	_ZNSt7__cxx1112basic_stringIcSt11char_traitsIcESaIcEE9_M_createERmm
	.type	_ZNSt7__cxx1112basic_stringIcSt11char_traitsIcESaIcEE9_M_createERmm, @function
_ZNSt7__cxx1112basic_stringIcSt11char_traitsIcESaIcEE9_M_createERmm:
.LVL257:
.LFB4109:
	.file 8 "/usr/include/c++/9/bits/basic_string.tcc"
	.loc 8 132 5 is_stmt 1 view -0
	.cfi_startproc
	.loc 8 132 5 is_stmt 0 view .LVU628
	endbr64
	subq	$8, %rsp
	.cfi_def_cfa_offset 16
	.loc 8 137 22 view .LVU629
	movq	(%rsi), %rax
	.loc 8 137 7 view .LVU630
	movabsq	$4611686018427387903, %rcx
	cmpq	%rcx, %rax
	ja	.L173
	.loc 8 143 7 view .LVU631
	cmpq	%rdx, %rax
	jbe	.L169
	.loc 8 143 57 discriminator 1 view .LVU632
	addq	%rdx, %rdx
.LVL258:
	.loc 8 143 39 discriminator 1 view .LVU633
	cmpq	%rdx, %rax
	jnb	.L169
	.loc 8 147 4 view .LVU634
	movabsq	$4611686018427387903, %rax
	cmpq	%rax, %rdx
	ja	.L170
	.loc 8 145 4 view .LVU635
	movq	%rdx, (%rsi)
.L169:
	.loc 8 153 37 view .LVU636
	movq	(%rsi), %rdi
.LVL259:
.LBB738:
.LBI738:
	.file 9 "/usr/include/c++/9/bits/alloc_traits.h"
	.loc 9 443 7 is_stmt 1 view .LVU637
.LBB739:
.LBI739:
	.file 10 "/usr/include/c++/9/ext/new_allocator.h"
	.loc 10 102 7 view .LVU638
.LBB740:
	.loc 10 104 2 is_stmt 0 view .LVU639
	addq	$1, %rdi
.LVL260:
	.loc 10 104 2 view .LVU640
	js	.L174
.LVL261:
.L171:
	.loc 10 114 41 view .LVU641
	call	_Znwm@PLT
.LVL262:
	.loc 10 114 41 view .LVU642
.LBE740:
.LBE739:
.LBE738:
	.loc 8 154 5 view .LVU643
	addq	$8, %rsp
	.cfi_remember_state
	.cfi_def_cfa_offset 8
	ret
.LVL263:
.L173:
	.cfi_restore_state
	.loc 8 138 27 view .LVU644
	leaq	.LC15(%rip), %rdi
.LVL264:
	.loc 8 138 27 view .LVU645
	call	_ZSt20__throw_length_errorPKc@PLT
.LVL265:
.L170:
	.loc 8 148 6 view .LVU646
	movabsq	$4611686018427387903, %rax
	movq	%rax, (%rsi)
.LVL266:
.LBB744:
	.loc 9 443 7 is_stmt 1 view .LVU647
.LBB742:
	.loc 10 102 7 view .LVU648
.LBE742:
.LBE744:
	.loc 8 153 37 is_stmt 0 view .LVU649
	movabsq	$4611686018427387904, %rdi
.LVL267:
	.loc 8 153 37 view .LVU650
	jmp	.L171
.LVL268:
.L174:
.LBB745:
.LBB743:
.LBB741:
	.loc 10 105 26 view .LVU651
	call	_ZSt17__throw_bad_allocv@PLT
.LVL269:
	.loc 10 105 26 view .LVU652
.LBE741:
.LBE743:
.LBE745:
	.cfi_endproc
.LFE4109:
	.size	_ZNSt7__cxx1112basic_stringIcSt11char_traitsIcESaIcEE9_M_createERmm, .-_ZNSt7__cxx1112basic_stringIcSt11char_traitsIcESaIcEE9_M_createERmm
	.section	.text._ZNSt7__cxx1112basic_stringIcSt11char_traitsIcESaIcEE9_M_mutateEmmPKcm,"axG",@progbits,_ZNSt7__cxx1112basic_stringIcSt11char_traitsIcESaIcEE9_M_mutateEmmPKcm,comdat
	.align 2
	.weak	_ZNSt7__cxx1112basic_stringIcSt11char_traitsIcESaIcEE9_M_mutateEmmPKcm
	.type	_ZNSt7__cxx1112basic_stringIcSt11char_traitsIcESaIcEE9_M_mutateEmmPKcm, @function
_ZNSt7__cxx1112basic_stringIcSt11char_traitsIcESaIcEE9_M_mutateEmmPKcm:
.LVL270:
.LFB4115:
	.loc 8 310 5 is_stmt 1 view -0
	.cfi_startproc
	.loc 8 310 5 is_stmt 0 view .LVU654
	endbr64
	pushq	%r15
	.cfi_def_cfa_offset 16
	.cfi_offset 15, -16
	pushq	%r14
	.cfi_def_cfa_offset 24
	.cfi_offset 14, -24
	pushq	%r13
	.cfi_def_cfa_offset 32
	.cfi_offset 13, -32
	pushq	%r12
	.cfi_def_cfa_offset 40
	.cfi_offset 12, -40
	pushq	%rbp
	.cfi_def_cfa_offset 48
	.cfi_offset 6, -48
	pushq	%rbx
	.cfi_def_cfa_offset 56
	.cfi_offset 3, -56
	subq	$40, %rsp
	.cfi_def_cfa_offset 96
	movq	%rdi, %rbx
	movq	%rsi, %rbp
	movq	%rcx, (%rsp)
	movq	%r8, %r12
	.loc 8 310 5 view .LVU655
	movq	%fs:40, %rax
	movq	%rax, 24(%rsp)
	xorl	%eax, %eax
.LVL271:
.LBB746:
.LBI746:
	.file 11 "/usr/include/c++/9/bits/basic_string.h"
	.loc 11 936 7 is_stmt 1 view .LVU656
.LBB747:
	.loc 11 937 16 is_stmt 0 view .LVU657
	movq	8(%rdi), %rcx
.LVL272:
	.loc 11 937 16 view .LVU658
	leaq	(%rsi,%rdx), %rax
	movq	%rax, 8(%rsp)
.LBE747:
.LBE746:
	.loc 8 314 23 view .LVU659
	movq	%rcx, %r15
	subq	%rax, %r15
.LVL273:
	.loc 8 316 52 view .LVU660
	movq	%r8, %rax
	subq	%rdx, %rax
	addq	%rcx, %rax
	movq	%rax, 16(%rsp)
.LVL274:
.LBB748:
.LBI748:
	.loc 11 993 7 is_stmt 1 view .LVU661
.LBB749:
.LBB750:
.LBI750:
	.loc 11 221 7 view .LVU662
.LBB751:
.LBI751:
	.loc 11 186 7 view .LVU663
	.loc 11 186 7 is_stmt 0 view .LVU664
.LBE751:
.LBB752:
.LBI752:
	.loc 11 200 7 is_stmt 1 view .LVU665
.LBB753:
	.loc 11 203 57 is_stmt 0 view .LVU666
	leaq	16(%rdi), %r14
.LVL275:
	.loc 11 203 57 view .LVU667
.LBE753:
.LBE752:
.LBE750:
	.loc 11 995 23 view .LVU668
	cmpq	(%rdi), %r14
	je	.L185
	movq	16(%rdi), %rdx
.LVL276:
.L176:
	.loc 11 995 23 view .LVU669
.LBE749:
.LBE748:
	.loc 8 317 15 view .LVU670
	leaq	16(%rsp), %rsi
.LVL277:
	.loc 8 317 15 view .LVU671
	movq	%rbx, %rdi
.LVL278:
	.loc 8 317 15 view .LVU672
	call	_ZNSt7__cxx1112basic_stringIcSt11char_traitsIcESaIcEE9_M_createERmm
.LVL279:
	.loc 8 317 15 view .LVU673
	movq	%rax, %r13
.LVL280:
	.loc 8 319 7 view .LVU674
	testq	%rbp, %rbp
	je	.L177
.LVL281:
.LBB755:
.LBI755:
	.loc 11 186 7 is_stmt 1 view .LVU675
.LBB756:
	.loc 11 187 28 is_stmt 0 view .LVU676
	movq	(%rbx), %rsi
.LVL282:
	.loc 11 187 28 view .LVU677
.LBE756:
.LBE755:
.LBB757:
.LBI757:
	.loc 11 346 7 is_stmt 1 view .LVU678
.LBB758:
	.loc 11 348 2 is_stmt 0 view .LVU679
	cmpq	$1, %rbp
	je	.L187
.LVL283:
.LBB759:
.LBI759:
	.file 12 "/usr/include/c++/9/bits/char_traits.h"
	.loc 12 361 7 is_stmt 1 view .LVU680
.LBB760:
	.loc 12 363 2 view .LVU681
	.loc 12 365 2 view .LVU682
	.loc 12 365 49 is_stmt 0 view .LVU683
	movq	%rbp, %rdx
	movq	%rax, %rdi
	call	memcpy@PLT
.LVL284:
.L177:
	.loc 12 365 49 view .LVU684
.LBE760:
.LBE759:
.LBE758:
.LBE757:
	.loc 8 321 7 view .LVU685
	cmpq	$0, (%rsp)
	je	.L179
	testq	%r12, %r12
	je	.L179
	.loc 8 322 2 view .LVU686
	leaq	0(%r13,%rbp), %rdi
.LVL285:
.LBB764:
.LBI764:
	.loc 11 346 7 is_stmt 1 view .LVU687
.LBB765:
	.loc 11 348 2 is_stmt 0 view .LVU688
	cmpq	$1, %r12
	je	.L188
.LVL286:
.LBB766:
.LBI766:
	.loc 12 361 7 is_stmt 1 view .LVU689
.LBB767:
	.loc 12 363 2 view .LVU690
	.loc 12 365 2 view .LVU691
	.loc 12 365 49 is_stmt 0 view .LVU692
	movq	%r12, %rdx
	movq	(%rsp), %rsi
	call	memcpy@PLT
.LVL287:
	.loc 12 365 66 view .LVU693
	jmp	.L179
.LVL288:
.L185:
	.loc 12 365 66 view .LVU694
.LBE767:
.LBE766:
.LBE765:
.LBE764:
.LBB771:
.LBB754:
	.loc 11 995 23 view .LVU695
	movl	$15, %edx
.LVL289:
	.loc 11 995 23 view .LVU696
	jmp	.L176
.LVL290:
.L187:
	.loc 11 995 23 view .LVU697
.LBE754:
.LBE771:
.LBB772:
.LBB763:
.LBB761:
.LBI761:
	.loc 12 299 7 is_stmt 1 view .LVU698
.LBB762:
	.loc 12 300 9 view .LVU699
	.loc 12 300 16 is_stmt 0 view .LVU700
	movzbl	(%rsi), %eax
.LVL291:
	.loc 12 300 14 view .LVU701
	movb	%al, 0(%r13)
	.loc 12 300 22 view .LVU702
	jmp	.L177
.LVL292:
.L188:
	.loc 12 300 22 view .LVU703
.LBE762:
.LBE761:
.LBE763:
.LBE772:
.LBB773:
.LBB770:
.LBB768:
.LBI768:
	.loc 12 299 7 is_stmt 1 view .LVU704
.LBB769:
	.loc 12 300 9 view .LVU705
	.loc 12 300 14 is_stmt 0 view .LVU706
	movq	(%rsp), %rax
	movzbl	(%rax), %eax
	movb	%al, (%rdi)
.LVL293:
.L179:
	.loc 12 300 14 view .LVU707
.LBE769:
.LBE768:
.LBE770:
.LBE773:
	.loc 8 323 7 view .LVU708
	testq	%r15, %r15
	je	.L181
.LVL294:
.LBB774:
.LBI774:
	.loc 11 186 7 is_stmt 1 view .LVU709
	.loc 11 186 7 is_stmt 0 view .LVU710
.LBE774:
	.loc 8 325 27 view .LVU711
	movq	8(%rsp), %rsi
	addq	(%rbx), %rsi
	.loc 8 324 28 view .LVU712
	addq	%r12, %rbp
.LVL295:
	.loc 8 324 2 view .LVU713
	leaq	0(%r13,%rbp), %rdi
.LVL296:
.LBB775:
.LBI775:
	.loc 11 346 7 is_stmt 1 view .LVU714
.LBB776:
	.loc 11 348 2 is_stmt 0 view .LVU715
	cmpq	$1, %r15
	je	.L189
.LVL297:
.LBB777:
.LBI777:
	.loc 12 361 7 is_stmt 1 view .LVU716
.LBB778:
	.loc 12 363 2 view .LVU717
	.loc 12 365 2 view .LVU718
	.loc 12 365 49 is_stmt 0 view .LVU719
	movq	%r15, %rdx
	call	memcpy@PLT
.LVL298:
.L181:
	.loc 12 365 49 view .LVU720
.LBE778:
.LBE777:
.LBE776:
.LBE775:
.LBB782:
.LBI782:
	.loc 11 229 7 is_stmt 1 view .LVU721
.LBB783:
.LBB784:
.LBI784:
	.loc 11 221 7 view .LVU722
.LBB785:
.LBI785:
	.loc 11 186 7 view .LVU723
.LBB786:
	.loc 11 187 28 is_stmt 0 view .LVU724
	movq	(%rbx), %rdi
.LVL299:
	.loc 11 187 28 view .LVU725
.LBE786:
.LBE785:
.LBE784:
	.loc 11 231 2 view .LVU726
	cmpq	%rdi, %r14
	je	.L183
.LVL300:
.LBB787:
.LBI787:
	.loc 11 236 7 is_stmt 1 view .LVU727
.LBB788:
.LBB789:
.LBI789:
	.loc 9 469 7 view .LVU728
.LBB790:
.LBI790:
	.loc 10 119 7 view .LVU729
.LBB791:
	.loc 10 128 19 is_stmt 0 view .LVU730
	call	_ZdlPv@PLT
.LVL301:
.L183:
	.loc 10 128 19 view .LVU731
.LBE791:
.LBE790:
.LBE789:
.LBE788:
.LBE787:
.LBE783:
.LBE782:
.LBB792:
.LBI792:
	.loc 11 178 7 is_stmt 1 view .LVU732
.LBB793:
	.loc 11 179 9 is_stmt 0 view .LVU733
	movq	%r13, (%rbx)
.LVL302:
	.loc 11 179 9 view .LVU734
.LBE793:
.LBE792:
.LBB794:
.LBI794:
	.loc 11 210 7 is_stmt 1 view .LVU735
.LBB795:
	.loc 11 211 9 is_stmt 0 view .LVU736
	movq	16(%rsp), %rax
	movq	%rax, 16(%rbx)
.LVL303:
	.loc 11 211 9 view .LVU737
.LBE795:
.LBE794:
	.loc 8 330 5 view .LVU738
	movq	24(%rsp), %rax
	xorq	%fs:40, %rax
	jne	.L190
	.loc 8 330 5 view .LVU739
	addq	$40, %rsp
	.cfi_remember_state
	.cfi_def_cfa_offset 56
.LVL304:
	.loc 8 330 5 view .LVU740
	popq	%rbx
	.cfi_def_cfa_offset 48
.LVL305:
	.loc 8 330 5 view .LVU741
	popq	%rbp
	.cfi_def_cfa_offset 40
	popq	%r12
	.cfi_def_cfa_offset 32
.LVL306:
	.loc 8 330 5 view .LVU742
	popq	%r13
	.cfi_def_cfa_offset 24
.LVL307:
	.loc 8 330 5 view .LVU743
	popq	%r14
	.cfi_def_cfa_offset 16
.LVL308:
	.loc 8 330 5 view .LVU744
	popq	%r15
	.cfi_def_cfa_offset 8
.LVL309:
	.loc 8 330 5 view .LVU745
	ret
.LVL310:
.L189:
	.cfi_restore_state
.LBB796:
.LBB781:
.LBB779:
.LBI779:
	.loc 12 299 7 is_stmt 1 view .LVU746
.LBB780:
	.loc 12 300 9 view .LVU747
	.loc 12 300 16 is_stmt 0 view .LVU748
	movzbl	(%rsi), %eax
	.loc 12 300 14 view .LVU749
	movb	%al, (%rdi)
	.loc 12 300 22 view .LVU750
	jmp	.L181
.LVL311:
.L190:
	.loc 12 300 22 view .LVU751
.LBE780:
.LBE779:
.LBE781:
.LBE796:
	.loc 8 330 5 view .LVU752
	call	__stack_chk_fail@PLT
.LVL312:
	.cfi_endproc
.LFE4115:
	.size	_ZNSt7__cxx1112basic_stringIcSt11char_traitsIcESaIcEE9_M_mutateEmmPKcm, .-_ZNSt7__cxx1112basic_stringIcSt11char_traitsIcESaIcEE9_M_mutateEmmPKcm
	.text
	.globl	_ZN6Charon10Witchcraft2bbEm
	.type	_ZN6Charon10Witchcraft2bbEm, @function
_ZN6Charon10Witchcraft2bbEm:
.LVL313:
.LFB3658:
	.loc 4 367 29 is_stmt 1 view -0
	.cfi_startproc
	.cfi_personality 0x9b,DW.ref.__gxx_personality_v0
	.cfi_lsda 0x1b,.LLSDA3658
	.loc 4 367 29 is_stmt 0 view .LVU754
	endbr64
	pushq	%r15
	.cfi_def_cfa_offset 16
	.cfi_offset 15, -16
	pushq	%r14
	.cfi_def_cfa_offset 24
	.cfi_offset 14, -24
	pushq	%r13
	.cfi_def_cfa_offset 32
	.cfi_offset 13, -32
	pushq	%r12
	.cfi_def_cfa_offset 40
	.cfi_offset 12, -40
	pushq	%rbp
	.cfi_def_cfa_offset 48
	.cfi_offset 6, -48
	pushq	%rbx
	.cfi_def_cfa_offset 56
	.cfi_offset 3, -56
	subq	$72, %rsp
	.cfi_def_cfa_offset 128
	movq	%rdi, %r12
	.loc 4 367 29 view .LVU755
	movq	%fs:40, %rax
	movq	%rax, 56(%rsp)
	xorl	%eax, %eax
	.loc 4 368 13 is_stmt 1 view .LVU756
.LVL314:
.LBB971:
.LBI971:
	.loc 11 431 7 view .LVU757
.LBB972:
.LBB973:
.LBI973:
	.file 13 "/usr/include/c++/9/bits/allocator.h"
	.loc 13 138 7 view .LVU758
.LBB974:
.LBI974:
	.loc 10 80 7 view .LVU759
	.loc 10 80 7 is_stmt 0 view .LVU760
.LBE974:
.LBE973:
.LBB975:
.LBI975:
	.loc 11 190 7 is_stmt 1 view .LVU761
	.loc 11 190 7 is_stmt 0 view .LVU762
.LBE975:
.LBB976:
.LBI976:
	.loc 11 159 2 is_stmt 1 view .LVU763
.LBB977:
.LBB978:
.LBB979:
.LBI979:
	.file 14 "/usr/include/c++/9/bits/move.h"
	.loc 14 99 5 view .LVU764
	.loc 14 99 5 is_stmt 0 view .LVU765
.LBE979:
.LBB980:
.LBI980:
	.loc 13 141 7 is_stmt 1 view .LVU766
.LBB981:
.LBI981:
	.loc 10 83 7 view .LVU767
	.loc 10 83 7 is_stmt 0 view .LVU768
.LBE981:
.LBE980:
	.loc 11 160 46 view .LVU769
	leaq	16(%rsp), %rdi
.LVL315:
	.loc 11 160 46 view .LVU770
	leaq	32(%rsp), %rax
.LVL316:
	.loc 11 160 46 view .LVU771
	movq	%rax, 16(%rsp)
.LVL317:
	.loc 11 160 46 view .LVU772
.LBE978:
.LBE977:
.LBE976:
.LBB982:
.LBI982:
	.loc 13 153 7 is_stmt 1 view .LVU773
.LBB983:
.LBI983:
	.loc 10 89 7 view .LVU774
	.loc 10 89 7 is_stmt 0 view .LVU775
.LBE983:
.LBE982:
.LBB984:
.LBI984:
	.loc 11 214 7 is_stmt 1 view .LVU776
.LBB985:
.LBI985:
	.loc 11 182 7 view .LVU777
.LBB986:
	.loc 11 183 9 is_stmt 0 view .LVU778
	movq	$0, 24(%rsp)
.LVL318:
	.loc 11 183 9 view .LVU779
.LBE986:
.LBE985:
.LBB987:
.LBI987:
	.loc 12 299 7 is_stmt 1 view .LVU780
.LBB988:
	.loc 12 300 9 view .LVU781
	.loc 12 300 14 is_stmt 0 view .LVU782
	movb	$0, 32(%rsp)
.LVL319:
	.loc 12 300 14 view .LVU783
.LBE988:
.LBE987:
.LBE984:
.LBE972:
.LBE971:
	.loc 4 369 13 is_stmt 1 view .LVU784
	.loc 4 369 13 is_stmt 0 view .LVU785
	movq	$136, 8(%rsp)
.LVL320:
.LBB989:
.LBI989:
	.loc 8 280 5 is_stmt 1 view .LVU786
.LBB990:
.LBB991:
.LBI991:
	.loc 11 993 7 view .LVU787
.LBB992:
.LBI992:
	.loc 11 221 7 view .LVU788
.LBB993:
.LBI993:
	.loc 11 200 7 view .LVU789
	.loc 11 200 7 is_stmt 0 view .LVU790
.LBE993:
.LBE992:
.LBE991:
.LBB994:
	.loc 8 293 16 view .LVU791
	leaq	8(%rsp), %rsi
.LVL321:
	.loc 8 293 16 view .LVU792
	movl	$15, %edx
.LEHB10:
	call	_ZNSt7__cxx1112basic_stringIcSt11char_traitsIcESaIcEE9_M_createERmm
.LVL322:
	.loc 8 293 16 view .LVU793
	movq	%rax, %rbx
.LVL323:
.LBB995:
.LBI995:
	.loc 11 936 7 is_stmt 1 view .LVU794
	.loc 11 936 7 is_stmt 0 view .LVU795
.LBE995:
	.loc 8 294 8 view .LVU796
	movq	24(%rsp), %rax
.LVL324:
	.loc 8 294 8 view .LVU797
	leaq	1(%rax), %rdx
.LVL325:
.LBB996:
.LBI996:
	.loc 11 186 7 is_stmt 1 view .LVU798
.LBB997:
	.loc 11 187 28 is_stmt 0 view .LVU799
	movq	16(%rsp), %rbp
.LVL326:
	.loc 11 187 28 view .LVU800
.LBE997:
.LBE996:
.LBB998:
.LBI998:
	.loc 11 346 7 is_stmt 1 view .LVU801
.LBB999:
	.loc 11 348 2 is_stmt 0 view .LVU802
	testq	%rax, %rax
	je	.L215
.LVL327:
.LBB1000:
.LBI1000:
	.loc 12 361 7 is_stmt 1 view .LVU803
.LBB1001:
	.loc 12 363 2 view .LVU804
	testq	%rdx, %rdx
	je	.L193
	.loc 12 365 2 view .LVU805
	.loc 12 365 49 is_stmt 0 view .LVU806
	movq	%rbp, %rsi
	movq	%rbx, %rdi
	call	memcpy@PLT
.LVL328:
	.loc 12 365 66 view .LVU807
	jmp	.L193
.LVL329:
.L215:
	.loc 12 365 66 view .LVU808
.LBE1001:
.LBE1000:
.LBB1002:
.LBI1002:
	.loc 12 299 7 is_stmt 1 view .LVU809
.LBB1003:
	.loc 12 300 9 view .LVU810
	.loc 12 300 16 is_stmt 0 view .LVU811
	movzbl	0(%rbp), %eax
	.loc 12 300 14 view .LVU812
	movb	%al, (%rbx)
.LVL330:
.L193:
	.loc 12 300 14 view .LVU813
.LBE1003:
.LBE1002:
.LBE999:
.LBE998:
.LBB1004:
.LBI1004:
	.loc 11 229 7 is_stmt 1 view .LVU814
.LBB1005:
	.loc 11 231 2 is_stmt 0 view .LVU815
	leaq	32(%rsp), %rax
	cmpq	%rax, %rbp
	je	.L194
.LVL331:
.LBB1006:
.LBI1006:
	.loc 11 236 7 is_stmt 1 view .LVU816
.LBB1007:
.LBB1008:
.LBI1008:
	.loc 9 469 7 view .LVU817
.LBB1009:
.LBI1009:
	.loc 10 119 7 view .LVU818
.LBB1010:
	.loc 10 128 19 is_stmt 0 view .LVU819
	movq	%rbp, %rdi
	call	_ZdlPv@PLT
.LVL332:
.L194:
	.loc 10 128 19 view .LVU820
.LBE1010:
.LBE1009:
.LBE1008:
.LBE1007:
.LBE1006:
.LBE1005:
.LBE1004:
.LBB1011:
.LBI1011:
	.loc 11 178 7 is_stmt 1 view .LVU821
.LBB1012:
	.loc 11 179 9 is_stmt 0 view .LVU822
	movq	%rbx, 16(%rsp)
.LVL333:
	.loc 11 179 9 view .LVU823
.LBE1012:
.LBE1011:
.LBB1013:
.LBI1013:
	.loc 11 210 7 is_stmt 1 view .LVU824
.LBB1014:
	.loc 11 211 9 is_stmt 0 view .LVU825
	movq	8(%rsp), %rax
	movq	%rax, 32(%rsp)
.LVL334:
	.loc 11 211 9 view .LVU826
.LBE1014:
.LBE1013:
.LBE994:
.LBE990:
.LBE989:
.LBB1015:
	.loc 4 371 30 is_stmt 1 view .LVU827
	.loc 4 371 21 is_stmt 0 view .LVU828
	movl	$0, %ebp
.LBB1016:
.LBB1017:
.LBB1018:
.LBB1019:
	.loc 11 995 23 view .LVU829
	leaq	32(%rsp), %r13
	jmp	.L203
.LVL335:
.L218:
	.loc 11 995 23 view .LVU830
.LBE1019:
.LBE1018:
.LBE1017:
.LBE1016:
	.loc 4 375 21 is_stmt 1 view .LVU831
.LBB1040:
.LBI1016:
	.loc 11 1349 7 view .LVU832
.LBB1039:
.LBB1025:
.LBI1025:
	.loc 11 930 7 view .LVU833
.LBB1026:
	.loc 11 931 16 is_stmt 0 view .LVU834
	movq	24(%rsp), %rbx
.LVL336:
	.loc 11 931 16 view .LVU835
.LBE1026:
.LBE1025:
	.loc 11 1352 13 view .LVU836
	leaq	1(%rbx), %r14
.LVL337:
.LBB1027:
.LBI1018:
	.loc 11 993 7 is_stmt 1 view .LVU837
.LBB1023:
.LBB1020:
.LBI1020:
	.loc 11 221 7 view .LVU838
.LBB1021:
.LBI1021:
	.loc 11 186 7 view .LVU839
	.loc 11 186 7 is_stmt 0 view .LVU840
.LBE1021:
.LBB1022:
.LBI1022:
	.loc 11 200 7 is_stmt 1 view .LVU841
	.loc 11 200 7 is_stmt 0 view .LVU842
.LBE1022:
.LBE1020:
	.loc 11 995 23 view .LVU843
	cmpq	%r13, 16(%rsp)
	je	.L208
	.loc 11 995 23 view .LVU844
	movq	32(%rsp), %rax
.L196:
.LVL338:
	.loc 11 995 23 view .LVU845
.LBE1023:
.LBE1027:
	.loc 11 1352 2 view .LVU846
	cmpq	%rax, %r14
	ja	.L216
.L197:
.LVL339:
.LBB1028:
.LBI1028:
	.loc 11 186 7 is_stmt 1 view .LVU847
	.loc 11 186 7 is_stmt 0 view .LVU848
.LBE1028:
.LBB1029:
.LBI1029:
	.loc 12 299 7 is_stmt 1 view .LVU849
.LBB1030:
	.loc 12 300 9 view .LVU850
	.loc 12 300 14 is_stmt 0 view .LVU851
	movq	16(%rsp), %rax
	movb	$10, (%rax,%rbx)
.LVL340:
	.loc 12 300 14 view .LVU852
.LBE1030:
.LBE1029:
.LBB1031:
.LBI1031:
	.loc 11 214 7 is_stmt 1 view .LVU853
.LBB1032:
.LBB1033:
.LBI1033:
	.loc 11 182 7 view .LVU854
.LBB1034:
	.loc 11 183 9 is_stmt 0 view .LVU855
	movq	%r14, 24(%rsp)
.LVL341:
	.loc 11 183 9 view .LVU856
.LBE1034:
.LBE1033:
.LBB1035:
.LBI1035:
	.loc 11 186 7 is_stmt 1 view .LVU857
	.loc 11 186 7 is_stmt 0 view .LVU858
.LBE1035:
.LBB1036:
.LBI1036:
	.loc 12 299 7 is_stmt 1 view .LVU859
.LBB1037:
	.loc 12 300 9 view .LVU860
	.loc 12 300 14 is_stmt 0 view .LVU861
	movq	16(%rsp), %rax
	movb	$0, 1(%rax,%rbx)
.LVL342:
	.loc 12 300 14 view .LVU862
.LBE1037:
.LBE1036:
.LBE1032:
.LBE1031:
	.loc 11 1356 7 view .LVU863
	jmp	.L195
.LVL343:
.L208:
.LBB1038:
.LBB1024:
	.loc 11 995 23 view .LVU864
	movl	$15, %eax
	jmp	.L196
.LVL344:
.L216:
	.loc 11 995 23 view .LVU865
.LBE1024:
.LBE1038:
	.loc 11 1353 4 view .LVU866
	leaq	16(%rsp), %rdi
.LVL345:
	.loc 11 1353 4 view .LVU867
	movl	$1, %r8d
	movl	$0, %ecx
	movl	$0, %edx
	movq	%rbx, %rsi
	call	_ZNSt7__cxx1112basic_stringIcSt11char_traitsIcESaIcEE9_M_mutateEmmPKcm
.LVL346:
	.loc 11 1353 4 view .LVU868
	jmp	.L197
.LVL347:
.L210:
	.loc 11 1353 4 view .LVU869
.LBE1039:
.LBE1040:
.LBB1041:
.LBB1042:
.LBB1043:
.LBB1044:
	.loc 11 995 23 view .LVU870
	movl	$15, %eax
	jmp	.L199
.LVL348:
.L219:
	.loc 11 995 23 view .LVU871
.LBE1044:
.LBE1043:
	.loc 11 1353 4 view .LVU872
	leaq	16(%rsp), %rdi
.LVL349:
	.loc 11 1353 4 view .LVU873
	movl	$1, %r8d
	movl	$0, %ecx
	movl	$0, %edx
	movq	%r14, %rsi
	call	_ZNSt7__cxx1112basic_stringIcSt11char_traitsIcESaIcEE9_M_mutateEmmPKcm
.LVL350:
	.loc 11 1353 4 view .LVU874
	jmp	.L200
.LVL351:
.L211:
	.loc 11 1353 4 view .LVU875
.LBE1042:
.LBE1041:
.LBB1063:
.LBB1064:
.LBB1065:
.LBB1066:
	.loc 11 995 23 view .LVU876
	movl	$15, %eax
	jmp	.L201
.LVL352:
.L202:
	.loc 11 995 23 view .LVU877
.LBE1066:
.LBE1065:
.LBB1071:
.LBI1071:
	.loc 11 186 7 is_stmt 1 view .LVU878
	.loc 11 186 7 is_stmt 0 view .LVU879
.LBE1071:
.LBB1072:
.LBI1072:
	.loc 12 299 7 is_stmt 1 view .LVU880
.LBB1073:
	.loc 12 300 9 view .LVU881
	.loc 12 300 14 is_stmt 0 view .LVU882
	movq	16(%rsp), %rax
	movb	$32, (%rax,%rbx)
.LVL353:
	.loc 12 300 14 view .LVU883
.LBE1073:
.LBE1072:
.LBB1074:
.LBI1074:
	.loc 11 214 7 is_stmt 1 view .LVU884
.LBB1075:
.LBB1076:
.LBI1076:
	.loc 11 182 7 view .LVU885
.LBB1077:
	.loc 11 183 9 is_stmt 0 view .LVU886
	movq	%r14, 24(%rsp)
.LVL354:
	.loc 11 183 9 view .LVU887
.LBE1077:
.LBE1076:
.LBB1078:
.LBI1078:
	.loc 11 186 7 is_stmt 1 view .LVU888
	.loc 11 186 7 is_stmt 0 view .LVU889
.LBE1078:
.LBB1079:
.LBI1079:
	.loc 12 299 7 is_stmt 1 view .LVU890
.LBB1080:
	.loc 12 300 9 view .LVU891
	.loc 12 300 14 is_stmt 0 view .LVU892
	movq	16(%rsp), %rax
	movb	$0, 1(%rax,%rbx)
.LVL355:
	.loc 12 300 14 view .LVU893
.LBE1080:
.LBE1079:
.LBE1075:
.LBE1074:
.LBE1064:
.LBE1063:
	.loc 4 370 13 is_stmt 1 view .LVU894
	addl	$1, %ebp
.LVL356:
	.loc 4 372 24 is_stmt 0 view .LVU895
	shrq	%r12
.LVL357:
	.loc 4 371 30 is_stmt 1 view .LVU896
	cmpl	$64, %ebp
	je	.L217
.LVL358:
.L203:
	.loc 4 374 17 view .LVU897
.LBB1085:
.LBI1085:
	.loc 7 510 20 view .LVU898
.LBB1086:
	.loc 7 511 11 view .LVU899
	.loc 7 511 11 is_stmt 0 view .LVU900
.LBE1086:
.LBE1085:
	.loc 4 374 17 view .LVU901
	testb	$7, %bpl
	je	.L218
.L195:
	.loc 4 376 17 is_stmt 1 view .LVU902
	.loc 4 376 32 is_stmt 0 view .LVU903
	movq	%r12, %rax
	andl	$1, %eax
	.loc 4 376 29 view .LVU904
	cmpq	$1, %rax
	sbbl	%eax, %eax
	andl	$-4, %eax
.LVL359:
	.loc 4 376 29 view .LVU905
	leal	49(%rax), %ebx
.LBB1087:
.LBI1041:
	.loc 11 1349 7 is_stmt 1 view .LVU906
.LVL360:
.LBB1062:
.LBB1049:
.LBI1049:
	.loc 11 930 7 view .LVU907
.LBB1050:
	.loc 11 931 16 is_stmt 0 view .LVU908
	movq	24(%rsp), %r14
.LVL361:
	.loc 11 931 16 view .LVU909
.LBE1050:
.LBE1049:
	.loc 11 1352 13 view .LVU910
	leaq	1(%r14), %r15
.LVL362:
.LBB1051:
.LBI1043:
	.loc 11 993 7 is_stmt 1 view .LVU911
.LBB1048:
.LBB1045:
.LBI1045:
	.loc 11 221 7 view .LVU912
.LBB1046:
.LBI1046:
	.loc 11 186 7 view .LVU913
	.loc 11 186 7 is_stmt 0 view .LVU914
.LBE1046:
.LBB1047:
.LBI1047:
	.loc 11 200 7 is_stmt 1 view .LVU915
	.loc 11 200 7 is_stmt 0 view .LVU916
.LBE1047:
.LBE1045:
	.loc 11 995 23 view .LVU917
	cmpq	%r13, 16(%rsp)
	je	.L210
	movq	32(%rsp), %rax
.L199:
.LVL363:
	.loc 11 995 23 view .LVU918
.LBE1048:
.LBE1051:
	.loc 11 1352 2 view .LVU919
	cmpq	%rax, %r15
	ja	.L219
.L200:
.LVL364:
.LBB1052:
.LBI1052:
	.loc 11 186 7 is_stmt 1 view .LVU920
	.loc 11 186 7 is_stmt 0 view .LVU921
.LBE1052:
.LBB1053:
.LBI1053:
	.loc 12 299 7 is_stmt 1 view .LVU922
.LBB1054:
	.loc 12 300 9 view .LVU923
	.loc 12 300 14 is_stmt 0 view .LVU924
	movq	16(%rsp), %rax
	movb	%bl, (%rax,%r14)
.LVL365:
	.loc 12 300 14 view .LVU925
.LBE1054:
.LBE1053:
.LBB1055:
.LBI1055:
	.loc 11 214 7 is_stmt 1 view .LVU926
.LBB1056:
.LBB1057:
.LBI1057:
	.loc 11 182 7 view .LVU927
.LBB1058:
	.loc 11 183 9 is_stmt 0 view .LVU928
	movq	%r15, 24(%rsp)
.LVL366:
	.loc 11 183 9 view .LVU929
.LBE1058:
.LBE1057:
.LBB1059:
.LBI1059:
	.loc 11 186 7 is_stmt 1 view .LVU930
	.loc 11 186 7 is_stmt 0 view .LVU931
.LBE1059:
.LBB1060:
.LBI1060:
	.loc 12 299 7 is_stmt 1 view .LVU932
.LBB1061:
	.loc 12 300 9 view .LVU933
	.loc 12 300 14 is_stmt 0 view .LVU934
	movq	16(%rsp), %rax
	movb	$0, 1(%rax,%r14)
.LVL367:
	.loc 12 300 14 view .LVU935
.LBE1061:
.LBE1060:
.LBE1056:
.LBE1055:
.LBE1062:
.LBE1087:
	.loc 4 377 17 is_stmt 1 view .LVU936
.LBB1088:
.LBI1063:
	.loc 11 1349 7 view .LVU937
.LBB1084:
.LBB1081:
.LBI1081:
	.loc 11 930 7 view .LVU938
.LBB1082:
	.loc 11 931 16 is_stmt 0 view .LVU939
	movq	24(%rsp), %rbx
.LVL368:
	.loc 11 931 16 view .LVU940
.LBE1082:
.LBE1081:
	.loc 11 1352 13 view .LVU941
	leaq	1(%rbx), %r14
.LVL369:
.LBB1083:
.LBI1065:
	.loc 11 993 7 is_stmt 1 view .LVU942
.LBB1070:
.LBB1067:
.LBI1067:
	.loc 11 221 7 view .LVU943
.LBB1068:
.LBI1068:
	.loc 11 186 7 view .LVU944
	.loc 11 186 7 is_stmt 0 view .LVU945
.LBE1068:
.LBB1069:
.LBI1069:
	.loc 11 200 7 is_stmt 1 view .LVU946
	.loc 11 200 7 is_stmt 0 view .LVU947
.LBE1069:
.LBE1067:
	.loc 11 995 23 view .LVU948
	cmpq	%r13, 16(%rsp)
	je	.L211
	movq	32(%rsp), %rax
.L201:
.LVL370:
	.loc 11 995 23 view .LVU949
.LBE1070:
.LBE1083:
	.loc 11 1352 2 view .LVU950
	cmpq	%rax, %r14
	jbe	.L202
	.loc 11 1353 4 view .LVU951
	leaq	16(%rsp), %rdi
.LVL371:
	.loc 11 1353 4 view .LVU952
	movl	$1, %r8d
	movl	$0, %ecx
	movl	$0, %edx
	movq	%rbx, %rsi
	call	_ZNSt7__cxx1112basic_stringIcSt11char_traitsIcESaIcEE9_M_mutateEmmPKcm
.LVL372:
	.loc 11 1353 4 view .LVU953
	jmp	.L202
.LVL373:
.L217:
	.loc 11 1353 4 view .LVU954
.LBE1084:
.LBE1088:
.LBE1015:
	.loc 4 379 13 is_stmt 1 view .LVU955
.LBB1089:
.LBI1089:
	.loc 11 6416 5 view .LVU956
.LBB1090:
.LBB1091:
.LBI1091:
	.loc 11 930 7 view .LVU957
	.loc 11 930 7 is_stmt 0 view .LVU958
.LBE1091:
.LBB1092:
.LBI1092:
	.loc 11 2312 7 is_stmt 1 view .LVU959
.LBB1093:
.LBI1093:
	.loc 11 186 7 view .LVU960
	.loc 11 186 7 is_stmt 0 view .LVU961
.LBE1093:
.LBE1092:
	.loc 11 6421 30 view .LVU962
	movq	24(%rsp), %rdx
	movq	16(%rsp), %rsi
	leaq	_ZSt4cout(%rip), %rdi
	call	_ZSt16__ostream_insertIcSt11char_traitsIcEERSt13basic_ostreamIT_T0_ES6_PKS3_l@PLT
.LVL374:
.LEHE10:
	.loc 11 6421 30 view .LVU963
.LBE1090:
.LBE1089:
.LBB1094:
.LBI1094:
	.loc 11 657 7 is_stmt 1 view .LVU964
.LBB1095:
.LBI1095:
	.loc 11 229 7 view .LVU965
.LBB1096:
.LBB1097:
.LBI1097:
	.loc 11 221 7 view .LVU966
.LBB1098:
.LBI1098:
	.loc 11 186 7 view .LVU967
.LBB1099:
	.loc 11 187 28 is_stmt 0 view .LVU968
	movq	16(%rsp), %rdi
.LVL375:
	.loc 11 187 28 view .LVU969
.LBE1099:
.LBE1098:
.LBB1100:
.LBI1100:
	.loc 11 200 7 is_stmt 1 view .LVU970
	.loc 11 200 7 is_stmt 0 view .LVU971
.LBE1100:
.LBE1097:
	.loc 11 231 2 view .LVU972
	leaq	32(%rsp), %rax
	cmpq	%rax, %rdi
	je	.L191
.LVL376:
.LBB1101:
.LBI1101:
	.loc 11 236 7 is_stmt 1 view .LVU973
.LBB1102:
.LBB1103:
.LBI1103:
	.loc 9 469 7 view .LVU974
.LBB1104:
.LBI1104:
	.loc 10 119 7 view .LVU975
.LBB1105:
	.loc 10 128 19 is_stmt 0 view .LVU976
	call	_ZdlPv@PLT
.LVL377:
	.loc 10 128 19 view .LVU977
.LBE1105:
.LBE1104:
.LBE1103:
.LBE1102:
.LBE1101:
.LBE1096:
.LBE1095:
.LBB1106:
.LBI1106:
	.loc 11 150 14 is_stmt 1 view .LVU978
.LBB1107:
.LBI1107:
	.loc 13 153 7 view .LVU979
.LBB1108:
.LBI1108:
	.loc 10 89 7 view .LVU980
.L191:
	.loc 10 89 7 is_stmt 0 view .LVU981
.LBE1108:
.LBE1107:
.LBE1106:
.LBE1094:
	.loc 4 380 9 view .LVU982
	movq	56(%rsp), %rax
	xorq	%fs:40, %rax
	jne	.L220
	addq	$72, %rsp
	.cfi_remember_state
	.cfi_def_cfa_offset 56
	popq	%rbx
	.cfi_def_cfa_offset 48
.LVL378:
	.loc 4 380 9 view .LVU983
	popq	%rbp
	.cfi_def_cfa_offset 40
.LVL379:
	.loc 4 380 9 view .LVU984
	popq	%r12
	.cfi_def_cfa_offset 32
.LVL380:
	.loc 4 380 9 view .LVU985
	popq	%r13
	.cfi_def_cfa_offset 24
	popq	%r14
	.cfi_def_cfa_offset 16
.LVL381:
	.loc 4 380 9 view .LVU986
	popq	%r15
	.cfi_def_cfa_offset 8
.LVL382:
	.loc 4 380 9 view .LVU987
	ret
.LVL383:
.L212:
	.cfi_restore_state
	.loc 4 380 9 view .LVU988
	endbr64
	movq	%rax, %rbx
.LVL384:
.LBB1109:
.LBI1109:
	.loc 11 657 7 is_stmt 1 view .LVU989
.LBB1110:
.LBI1110:
	.loc 11 229 7 view .LVU990
.LBB1111:
.LBB1112:
.LBI1112:
	.loc 11 221 7 view .LVU991
.LBB1113:
.LBI1113:
	.loc 11 186 7 view .LVU992
.LBB1114:
	.loc 11 187 28 is_stmt 0 view .LVU993
	movq	16(%rsp), %rdi
.LVL385:
	.loc 11 187 28 view .LVU994
.LBE1114:
.LBE1113:
.LBB1115:
.LBI1115:
	.loc 11 200 7 is_stmt 1 view .LVU995
	.loc 11 200 7 is_stmt 0 view .LVU996
.LBE1115:
.LBE1112:
	.loc 11 231 2 view .LVU997
	leaq	32(%rsp), %rax
	cmpq	%rax, %rdi
	je	.L206
.LVL386:
.LBB1116:
.LBI1116:
	.loc 11 236 7 is_stmt 1 view .LVU998
.LBB1117:
.LBB1118:
.LBI1118:
	.loc 9 469 7 view .LVU999
.LBB1119:
.LBI1119:
	.loc 10 119 7 view .LVU1000
.LBB1120:
	.loc 10 128 19 is_stmt 0 view .LVU1001
	call	_ZdlPv@PLT
.LVL387:
.L206:
	.loc 10 128 19 view .LVU1002
.LBE1120:
.LBE1119:
.LBE1118:
.LBE1117:
.LBE1116:
.LBE1111:
.LBE1110:
.LBB1121:
.LBI1121:
	.loc 11 150 14 is_stmt 1 view .LVU1003
.LBB1122:
.LBI1122:
	.loc 13 153 7 view .LVU1004
.LBB1123:
.LBI1123:
	.loc 10 89 7 view .LVU1005
	.loc 10 89 7 is_stmt 0 view .LVU1006
	movq	%rbx, %rdi
.LEHB11:
	call	_Unwind_Resume@PLT
.LVL388:
.LEHE11:
.L220:
	.loc 10 89 7 view .LVU1007
.LBE1123:
.LBE1122:
.LBE1121:
.LBE1109:
	.loc 4 380 9 view .LVU1008
	call	__stack_chk_fail@PLT
.LVL389:
	.cfi_endproc
.LFE3658:
	.section	.gcc_except_table
.LLSDA3658:
	.byte	0xff
	.byte	0xff
	.byte	0x1
	.uleb128 .LLSDACSE3658-.LLSDACSB3658
.LLSDACSB3658:
	.uleb128 .LEHB10-.LFB3658
	.uleb128 .LEHE10-.LEHB10
	.uleb128 .L212-.LFB3658
	.uleb128 0
	.uleb128 .LEHB11-.LFB3658
	.uleb128 .LEHE11-.LEHB11
	.uleb128 0
	.uleb128 0
.LLSDACSE3658:
	.text
	.size	_ZN6Charon10Witchcraft2bbEm, .-_ZN6Charon10Witchcraft2bbEm
	.type	_GLOBAL__sub_I__ZN6Charon10Witchcraft4initEv, @function
_GLOBAL__sub_I__ZN6Charon10Witchcraft4initEv:
.LFB4327:
	.loc 4 527 1 is_stmt 1 view -0
	.cfi_startproc
	endbr64
	subq	$8, %rsp
	.cfi_def_cfa_offset 16
.LVL390:
.LBB1126:
.LBI1126:
	.loc 4 527 1 view .LVU1010
.LBB1127:
	.file 15 "/usr/include/c++/9/iostream"
	.loc 15 74 25 is_stmt 0 view .LVU1011
	leaq	_ZStL8__ioinit(%rip), %rdi
	call	_ZNSt8ios_base4InitC1Ev@PLT
.LVL391:
	leaq	__dso_handle(%rip), %rdx
	leaq	_ZStL8__ioinit(%rip), %rsi
	movq	_ZNSt8ios_base4InitD1Ev@GOTPCREL(%rip), %rdi
	call	__cxa_atexit@PLT
.LVL392:
	.loc 15 74 25 view .LVU1012
.LBE1127:
.LBE1126:
	.loc 4 527 1 view .LVU1013
	addq	$8, %rsp
	.cfi_def_cfa_offset 8
	ret
	.cfi_endproc
.LFE4327:
	.size	_GLOBAL__sub_I__ZN6Charon10Witchcraft4initEv, .-_GLOBAL__sub_I__ZN6Charon10Witchcraft4initEv
	.section	.init_array,"aw"
	.align 8
	.quad	_GLOBAL__sub_I__ZN6Charon10Witchcraft4initEv
	.weak	_ZTS4ListIPN6Charon10FancyMagicEE
	.section	.rodata._ZTS4ListIPN6Charon10FancyMagicEE,"aG",@progbits,_ZTS4ListIPN6Charon10FancyMagicEE,comdat
	.align 16
	.type	_ZTS4ListIPN6Charon10FancyMagicEE, @object
	.size	_ZTS4ListIPN6Charon10FancyMagicEE, 30
_ZTS4ListIPN6Charon10FancyMagicEE:
	.string	"4ListIPN6Charon10FancyMagicEE"
	.weak	_ZTI4ListIPN6Charon10FancyMagicEE
	.section	.data.rel.ro._ZTI4ListIPN6Charon10FancyMagicEE,"awG",@progbits,_ZTI4ListIPN6Charon10FancyMagicEE,comdat
	.align 8
	.type	_ZTI4ListIPN6Charon10FancyMagicEE, @object
	.size	_ZTI4ListIPN6Charon10FancyMagicEE, 16
_ZTI4ListIPN6Charon10FancyMagicEE:
	.quad	_ZTVN10__cxxabiv117__class_type_infoE+16
	.quad	_ZTS4ListIPN6Charon10FancyMagicEE
	.weak	_ZTS10UniqueListIPN6Charon10FancyMagicEE
	.section	.rodata._ZTS10UniqueListIPN6Charon10FancyMagicEE,"aG",@progbits,_ZTS10UniqueListIPN6Charon10FancyMagicEE,comdat
	.align 32
	.type	_ZTS10UniqueListIPN6Charon10FancyMagicEE, @object
	.size	_ZTS10UniqueListIPN6Charon10FancyMagicEE, 37
_ZTS10UniqueListIPN6Charon10FancyMagicEE:
	.string	"10UniqueListIPN6Charon10FancyMagicEE"
	.weak	_ZTI10UniqueListIPN6Charon10FancyMagicEE
	.section	.data.rel.ro._ZTI10UniqueListIPN6Charon10FancyMagicEE,"awG",@progbits,_ZTI10UniqueListIPN6Charon10FancyMagicEE,comdat
	.align 8
	.type	_ZTI10UniqueListIPN6Charon10FancyMagicEE, @object
	.size	_ZTI10UniqueListIPN6Charon10FancyMagicEE, 24
_ZTI10UniqueListIPN6Charon10FancyMagicEE:
	.quad	_ZTVN10__cxxabiv120__si_class_type_infoE+16
	.quad	_ZTS10UniqueListIPN6Charon10FancyMagicEE
	.quad	_ZTI4ListIPN6Charon10FancyMagicEE
	.weak	_ZTS12ReadOnlyListIPN6Charon10FancyMagicEE
	.section	.rodata._ZTS12ReadOnlyListIPN6Charon10FancyMagicEE,"aG",@progbits,_ZTS12ReadOnlyListIPN6Charon10FancyMagicEE,comdat
	.align 32
	.type	_ZTS12ReadOnlyListIPN6Charon10FancyMagicEE, @object
	.size	_ZTS12ReadOnlyListIPN6Charon10FancyMagicEE, 39
_ZTS12ReadOnlyListIPN6Charon10FancyMagicEE:
	.string	"12ReadOnlyListIPN6Charon10FancyMagicEE"
	.weak	_ZTI12ReadOnlyListIPN6Charon10FancyMagicEE
	.section	.data.rel.ro._ZTI12ReadOnlyListIPN6Charon10FancyMagicEE,"awG",@progbits,_ZTI12ReadOnlyListIPN6Charon10FancyMagicEE,comdat
	.align 8
	.type	_ZTI12ReadOnlyListIPN6Charon10FancyMagicEE, @object
	.size	_ZTI12ReadOnlyListIPN6Charon10FancyMagicEE, 24
_ZTI12ReadOnlyListIPN6Charon10FancyMagicEE:
	.quad	_ZTVN10__cxxabiv120__si_class_type_infoE+16
	.quad	_ZTS12ReadOnlyListIPN6Charon10FancyMagicEE
	.quad	_ZTI4ListIPN6Charon10FancyMagicEE
	.weak	_ZTV10UniqueListIPN6Charon10FancyMagicEE
	.section	.data.rel.ro.local._ZTV10UniqueListIPN6Charon10FancyMagicEE,"awG",@progbits,_ZTV10UniqueListIPN6Charon10FancyMagicEE,comdat
	.align 8
	.type	_ZTV10UniqueListIPN6Charon10FancyMagicEE, @object
	.size	_ZTV10UniqueListIPN6Charon10FancyMagicEE, 80
_ZTV10UniqueListIPN6Charon10FancyMagicEE:
	.quad	0
	.quad	_ZTI10UniqueListIPN6Charon10FancyMagicEE
	.quad	_ZN10UniqueListIPN6Charon10FancyMagicEE3addES2_
	.quad	_ZN10UniqueListIPN6Charon10FancyMagicEE3setEiS2_
	.quad	_ZN10UniqueListIPN6Charon10FancyMagicEE6insertEiS2_
	.quad	_ZNK10UniqueListIPN6Charon10FancyMagicEE4sizeEv
	.quad	_ZNK10UniqueListIPN6Charon10FancyMagicEE7isEmptyEv
	.quad	_ZNK10UniqueListIPN6Charon10FancyMagicEEixEi
	.quad	_ZN10UniqueListIPN6Charon10FancyMagicEED1Ev
	.quad	_ZN10UniqueListIPN6Charon10FancyMagicEED0Ev
	.weak	_ZTV12ReadOnlyListIPN6Charon10FancyMagicEE
	.section	.data.rel.ro.local._ZTV12ReadOnlyListIPN6Charon10FancyMagicEE,"awG",@progbits,_ZTV12ReadOnlyListIPN6Charon10FancyMagicEE,comdat
	.align 8
	.type	_ZTV12ReadOnlyListIPN6Charon10FancyMagicEE, @object
	.size	_ZTV12ReadOnlyListIPN6Charon10FancyMagicEE, 80
_ZTV12ReadOnlyListIPN6Charon10FancyMagicEE:
	.quad	0
	.quad	_ZTI12ReadOnlyListIPN6Charon10FancyMagicEE
	.quad	_ZN12ReadOnlyListIPN6Charon10FancyMagicEE3addES2_
	.quad	_ZN12ReadOnlyListIPN6Charon10FancyMagicEE3setEiS2_
	.quad	_ZN12ReadOnlyListIPN6Charon10FancyMagicEE6insertEiS2_
	.quad	_ZNK12ReadOnlyListIPN6Charon10FancyMagicEE4sizeEv
	.quad	_ZNK12ReadOnlyListIPN6Charon10FancyMagicEE7isEmptyEv
	.quad	_ZNK12ReadOnlyListIPN6Charon10FancyMagicEEixEi
	.quad	_ZN12ReadOnlyListIPN6Charon10FancyMagicEED1Ev
	.quad	_ZN12ReadOnlyListIPN6Charon10FancyMagicEED0Ev
	.local	_ZN6Charon10Witchcraft12_GLOBAL__N_111InitControl1mE
	.comm	_ZN6Charon10Witchcraft12_GLOBAL__N_111InitControl1mE,40,32
	.local	_ZN6Charon10Witchcraft12_GLOBAL__N_111InitControl11initializedE
	.comm	_ZN6Charon10Witchcraft12_GLOBAL__N_111InitControl11initializedE,1,1
	.local	_ZN6Charon10Witchcraft12_GLOBAL__N_122BishopAttackWitchcraftE
	.comm	_ZN6Charon10Witchcraft12_GLOBAL__N_122BishopAttackWitchcraftE,8,8
	.local	_ZN6Charon10Witchcraft12_GLOBAL__N_120RookAttackWitchcraftE
	.comm	_ZN6Charon10Witchcraft12_GLOBAL__N_120RookAttackWitchcraftE,8,8
	.section	.rodata
	.align 32
	.type	_ZN6Charon10Witchcraft12_GLOBAL__N_1L18BishopMagicNumbersE, @object
	.size	_ZN6Charon10Witchcraft12_GLOBAL__N_1L18BishopMagicNumbersE, 512
_ZN6Charon10Witchcraft12_GLOBAL__N_1L18BishopMagicNumbersE:
	.quad	4616295173873598496
	.quad	83317696948209666
	.quad	128363585604698114
	.quad	-8358082181368593404
	.quad	1586399154039554178
	.quad	-6905935742141169628
	.quad	432909618525569088
	.quad	282025875473472
	.quad	148689226308845648
	.quad	2305845225484189764
	.quad	649090095626455040
	.quad	5769155122471895170
	.quad	-3422170558943444928
	.quad	437434250208346627
	.quad	36037876614447144
	.quad	1337298474242048
	.quad	4504012484386948
	.quad	572331269825058
	.quad	1158551287743648512
	.quad	284258183741568
	.quad	1125934837543172
	.quad	14144143485830162
	.quad	1189091074684243968
	.quad	2306564306591887368
	.quad	4757213015405757537
	.quad	38289394059182336
	.quad	1408488622524448
	.quad	4774105876367688448
	.quad	2533550138081353
	.quad	146391179563404292
	.quad	-9223089461795975040
	.quad	-9223229096039267328
	.quad	4684887122816009473
	.quad	20267332732453408
	.quad	18155275585323136
	.quad	4629702618108133504
	.quad	-8355863951014887291
	.quad	13511349183578626
	.quad	635526311051392
	.quad	1154931551450964488
	.quad	1230054458277497088
	.quad	36600698254918786
	.quad	144679238212125824
	.quad	36732622302415108
	.quad	4653275009810704
	.quad	2738787261918241026
	.quad	326519977450487938
	.quad	3459173687041728576
	.quad	612772128644759680
	.quad	252764808395956224
	.quad	1152992990059561472
	.quad	1152956690086363204
	.quad	-9223336284925984512
	.quad	576469621679884288
	.quad	153124655106922752
	.quad	2612512844095617
	.quad	1166575244564038912
	.quad	72057870024183872
	.quad	4630052811520905216
	.quad	2449962638294385666
	.quad	9077572837057664
	.quad	4612253507624504452
	.quad	54022233393280
	.quad	5190416231459072640
	.align 32
	.type	_ZN6Charon10Witchcraft12_GLOBAL__N_1L16RookMagicNumbersE, @object
	.size	_ZN6Charon10Witchcraft12_GLOBAL__N_1L16RookMagicNumbersE, 512
_ZN6Charon10Witchcraft12_GLOBAL__N_1L16RookMagicNumbersE:
	.quad	756605012284543520
	.quad	4701793196420632578
	.quad	144133063731972224
	.quad	4719790001804574724
	.quad	144150381038928904
	.quad	144116356374200328
	.quad	288239176549138948
	.quad	396317317002195200
	.quad	144818877734338568
	.quad	351981164040192
	.quad	3530963395371081728
	.quad	7037020715092224
	.quad	3458905285677024256
	.quad	216454295745332224
	.quad	1156017747084186112
	.quad	9147956072235264
	.quad	150083408494624
	.quad	6917599671531610120
	.quad	3530963395371081728
	.quad	286973085351976
	.quad	1171077190494716930
	.quad	8444799124243072
	.quad	-8971169353915170304
	.quad	2382406402715960321
	.quad	1315121470675910656
	.quad	9042384701620288
	.quad	17594335625345
	.quad	17594334052480
	.quad	-8065938134371662848
	.quad	1179947502573453824
	.quad	576462953482551552
	.quad	864985943600550017
	.quad	2972446125518225792
	.quad	-8935071289786228735
	.quad	2378464103531298832
	.quad	2269394155603968
	.quad	-8065938134371662848
	.quad	648659101017965056
	.quad	-9218867303288926206
	.quad	2312598687861186692
	.quad	3999196606548426752
	.quad	71605963243520
	.quad	54060788251394176
	.quad	281543698350088
	.quad	1152930300767010944
	.quad	562958610497664
	.quad	96827907244050
	.quad	288249120504807428
	.quad	2972446125518225792
	.quad	9042384701620288
	.quad	-9222228260748655104
	.quad	1152930311442530944
	.quad	1152930300767010944
	.quad	562958610497664
	.quad	81224291869393920
	.quad	2753382580736
	.quad	140746620014849
	.quad	1144042922510881
	.quad	248490048454978
	.quad	648553599433181441
	.quad	-9222809065290166270
	.quad	281492156712961
	.quad	1729391057333948484
	.quad	4631991800301625606
	.align 32
	.type	_ZN6Charon10WitchcraftL25SquareToBishopBlockerMaskE, @object
	.size	_ZN6Charon10WitchcraftL25SquareToBishopBlockerMaskE, 512
_ZN6Charon10WitchcraftL25SquareToBishopBlockerMaskE:
	.quad	18049651735527936
	.quad	70506452091904
	.quad	275415828992
	.quad	1075975168
	.quad	38021120
	.quad	8657588224
	.quad	2216338399232
	.quad	567382630219776
	.quad	9024825867763712
	.quad	18049651735527424
	.quad	70506452221952
	.quad	275449643008
	.quad	9733406720
	.quad	2216342585344
	.quad	567382630203392
	.quad	1134765260406784
	.quad	4512412933816832
	.quad	9024825867633664
	.quad	18049651768822272
	.quad	70515108615168
	.quad	2491752130560
	.quad	567383701868544
	.quad	1134765256220672
	.quad	2269530512441344
	.quad	2256206450263040
	.quad	4512412900526080
	.quad	9024834391117824
	.quad	18051867805491712
	.quad	637888545440768
	.quad	1135039602493440
	.quad	2269529440784384
	.quad	4539058881568768
	.quad	1128098963916800
	.quad	2256197927833600
	.quad	4514594912477184
	.quad	9592139778506752
	.quad	19184279556981248
	.quad	2339762086609920
	.quad	4538784537380864
	.quad	9077569074761728
	.quad	562958610993152
	.quad	1125917221986304
	.quad	2814792987328512
	.quad	5629586008178688
	.quad	11259172008099840
	.quad	22518341868716544
	.quad	9007336962655232
	.quad	18014673925310464
	.quad	2216338399232
	.quad	4432676798464
	.quad	11064376819712
	.quad	22137335185408
	.quad	44272556441600
	.quad	87995357200384
	.quad	35253226045952
	.quad	70506452091904
	.quad	567382630219776
	.quad	1134765260406784
	.quad	2832480465846272
	.quad	5667157807464448
	.quad	11333774449049600
	.quad	22526811443298304
	.quad	9024825867763712
	.quad	18049651735527936
	.align 32
	.type	_ZN6Charon10WitchcraftL23SquareToRookBlockerMaskE, @object
	.size	_ZN6Charon10WitchcraftL23SquareToRookBlockerMaskE, 512
_ZN6Charon10WitchcraftL23SquareToRookBlockerMaskE:
	.quad	282578800148862
	.quad	565157600297596
	.quad	1130315200595066
	.quad	2260630401190006
	.quad	4521260802379886
	.quad	9042521604759646
	.quad	18085043209519166
	.quad	36170086419038334
	.quad	282578800180736
	.quad	565157600328704
	.quad	1130315200625152
	.quad	2260630401218048
	.quad	4521260802403840
	.quad	9042521604775424
	.quad	18085043209518592
	.quad	36170086419037696
	.quad	282578808340736
	.quad	565157608292864
	.quad	1130315208328192
	.quad	2260630408398848
	.quad	4521260808540160
	.quad	9042521608822784
	.quad	18085043209388032
	.quad	36170086418907136
	.quad	282580897300736
	.quad	565159647117824
	.quad	1130317180306432
	.quad	2260632246683648
	.quad	4521262379438080
	.quad	9042522644946944
	.quad	18085043175964672
	.quad	36170086385483776
	.quad	283115671060736
	.quad	565681586307584
	.quad	1130822006735872
	.quad	2261102847592448
	.quad	4521664529305600
	.quad	9042787892731904
	.quad	18085034619584512
	.quad	36170077829103616
	.quad	420017753620736
	.quad	699298018886144
	.quad	1260057572672512
	.quad	2381576680245248
	.quad	4624614895390720
	.quad	9110691325681664
	.quad	18082844186263552
	.quad	36167887395782656
	.quad	35466950888980736
	.quad	34905104758997504
	.quad	34344362452452352
	.quad	33222877839362048
	.quad	30979908613181440
	.quad	26493970160820224
	.quad	17522093256097792
	.quad	35607136465616896
	.quad	9079539427579068672
	.quad	8935706818303361536
	.quad	8792156787827803136
	.quad	8505056726876686336
	.quad	7930856604974452736
	.quad	6782456361169985536
	.quad	4485655873561051136
	.quad	9115426935197958144
	.align 32
	.type	_ZN6Charon10WitchcraftL19SquareToKingAttacksE, @object
	.size	_ZN6Charon10WitchcraftL19SquareToKingAttacksE, 512
_ZN6Charon10WitchcraftL19SquareToKingAttacksE:
	.quad	770
	.quad	1797
	.quad	3594
	.quad	7188
	.quad	14376
	.quad	28752
	.quad	57504
	.quad	49216
	.quad	197123
	.quad	460039
	.quad	920078
	.quad	1840156
	.quad	3680312
	.quad	7360624
	.quad	14721248
	.quad	12599488
	.quad	50463488
	.quad	117769984
	.quad	235539968
	.quad	471079936
	.quad	942159872
	.quad	1884319744
	.quad	3768639488
	.quad	3225468928
	.quad	12918652928
	.quad	30149115904
	.quad	60298231808
	.quad	120596463616
	.quad	241192927232
	.quad	482385854464
	.quad	964771708928
	.quad	825720045568
	.quad	3307175149568
	.quad	7718173671424
	.quad	15436347342848
	.quad	30872694685696
	.quad	61745389371392
	.quad	123490778742784
	.quad	246981557485568
	.quad	211384331665408
	.quad	846636838289408
	.quad	1975852459884544
	.quad	3951704919769088
	.quad	7903409839538176
	.quad	15806819679076352
	.quad	31613639358152704
	.quad	63227278716305408
	.quad	54114388906344448
	.quad	216739030602088448
	.quad	505818229730443264
	.quad	1011636459460886528
	.quad	2023272918921773056
	.quad	4046545837843546112
	.quad	8093091675687092224
	.quad	-2260560722335367168
	.quad	-4593460513685372928
	.quad	144959613005987840
	.quad	362258295026614272
	.quad	724516590053228544
	.quad	1449033180106457088
	.quad	2898066360212914176
	.quad	5796132720425828352
	.quad	-6854478632857894912
	.quad	4665729213955833856
	.align 32
	.type	_ZN6Charon10WitchcraftL21SquareToKnightAttacksE, @object
	.size	_ZN6Charon10WitchcraftL21SquareToKnightAttacksE, 512
_ZN6Charon10WitchcraftL21SquareToKnightAttacksE:
	.quad	132096
	.quad	329728
	.quad	659712
	.quad	1319424
	.quad	2638848
	.quad	5277696
	.quad	10489856
	.quad	4202496
	.quad	33816580
	.quad	84410376
	.quad	168886289
	.quad	337772578
	.quad	675545156
	.quad	1351090312
	.quad	2685403152
	.quad	1075839008
	.quad	8657044482
	.quad	21609056261
	.quad	43234889994
	.quad	86469779988
	.quad	172939559976
	.quad	345879119952
	.quad	687463207072
	.quad	275414786112
	.quad	2216203387392
	.quad	5531918402816
	.quad	11068131838464
	.quad	22136263676928
	.quad	44272527353856
	.quad	88545054707712
	.quad	175990581010432
	.quad	70506185244672
	.quad	567348067172352
	.quad	1416171111120896
	.quad	2833441750646784
	.quad	5666883501293568
	.quad	11333767002587136
	.quad	22667534005174272
	.quad	45053588738670592
	.quad	18049583422636032
	.quad	145241105196122112
	.quad	362539804446949376
	.quad	725361088165576704
	.quad	1450722176331153408
	.quad	2901444352662306816
	.quad	5802888705324613632
	.quad	-6913025356609880064
	.quad	4620693356194824192
	.quad	288234782788157440
	.quad	576469569871282176
	.quad	1224997833292120064
	.quad	2449995666584240128
	.quad	4899991333168480256
	.quad	-8646761407372591104
	.quad	1152939783987658752
	.quad	2305878468463689728
	.quad	1128098930098176
	.quad	2257297371824128
	.quad	4796069720358912
	.quad	9592139440717824
	.quad	19184278881435648
	.quad	38368557762871296
	.quad	4679521487814656
	.quad	9077567998918656
	.align 32
	.type	_ZN6Charon10WitchcraftL16FancyBishopSizesE, @object
	.size	_ZN6Charon10WitchcraftL16FancyBishopSizesE, 128
_ZN6Charon10WitchcraftL16FancyBishopSizesE:
	.value	64
	.value	32
	.value	32
	.value	32
	.value	32
	.value	32
	.value	32
	.value	64
	.value	32
	.value	32
	.value	32
	.value	32
	.value	32
	.value	32
	.value	32
	.value	32
	.value	32
	.value	32
	.value	128
	.value	128
	.value	128
	.value	128
	.value	32
	.value	32
	.value	32
	.value	32
	.value	128
	.value	512
	.value	512
	.value	128
	.value	32
	.value	32
	.value	32
	.value	32
	.value	128
	.value	512
	.value	512
	.value	128
	.value	32
	.value	32
	.value	32
	.value	32
	.value	128
	.value	128
	.value	128
	.value	128
	.value	32
	.value	32
	.value	32
	.value	32
	.value	32
	.value	32
	.value	32
	.value	32
	.value	32
	.value	32
	.value	64
	.value	32
	.value	32
	.value	32
	.value	32
	.value	32
	.value	32
	.value	64
	.align 32
	.type	_ZN6Charon10WitchcraftL14FancyRookSizesE, @object
	.size	_ZN6Charon10WitchcraftL14FancyRookSizesE, 128
_ZN6Charon10WitchcraftL14FancyRookSizesE:
	.value	4096
	.value	2048
	.value	2048
	.value	2048
	.value	2048
	.value	2048
	.value	2048
	.value	4096
	.value	2048
	.value	1024
	.value	1024
	.value	1024
	.value	1024
	.value	1024
	.value	1024
	.value	2048
	.value	2048
	.value	1024
	.value	1024
	.value	1024
	.value	1024
	.value	1024
	.value	1024
	.value	2048
	.value	2048
	.value	1024
	.value	1024
	.value	1024
	.value	1024
	.value	1024
	.value	1024
	.value	2048
	.value	2048
	.value	1024
	.value	1024
	.value	1024
	.value	1024
	.value	1024
	.value	1024
	.value	2048
	.value	2048
	.value	1024
	.value	1024
	.value	1024
	.value	1024
	.value	1024
	.value	1024
	.value	2048
	.value	2048
	.value	1024
	.value	1024
	.value	1024
	.value	1024
	.value	1024
	.value	1024
	.value	2048
	.value	4096
	.value	2048
	.value	2048
	.value	2048
	.value	2048
	.value	2048
	.value	2048
	.value	4096
	.type	_ZN6Charon10WitchcraftL14RookDirectionsE, @object
	.size	_ZN6Charon10WitchcraftL14RookDirectionsE, 4
_ZN6Charon10WitchcraftL14RookDirectionsE:
	.byte	8
	.byte	-1
	.byte	-8
	.byte	1
	.type	_ZN6Charon10WitchcraftL16BishopDirectionsE, @object
	.size	_ZN6Charon10WitchcraftL16BishopDirectionsE, 4
_ZN6Charon10WitchcraftL16BishopDirectionsE:
	.byte	7
	.byte	-9
	.byte	-7
	.byte	9
	.align 32
	.type	_ZN6Charon10WitchcraftL16SquareToBitBoardE, @object
	.size	_ZN6Charon10WitchcraftL16SquareToBitBoardE, 512
_ZN6Charon10WitchcraftL16SquareToBitBoardE:
	.quad	1
	.quad	2
	.quad	4
	.quad	8
	.quad	16
	.quad	32
	.quad	64
	.quad	128
	.quad	256
	.quad	512
	.quad	1024
	.quad	2048
	.quad	4096
	.quad	8192
	.quad	16384
	.quad	32768
	.quad	65536
	.quad	131072
	.quad	262144
	.quad	524288
	.quad	1048576
	.quad	2097152
	.quad	4194304
	.quad	8388608
	.quad	16777216
	.quad	33554432
	.quad	67108864
	.quad	134217728
	.quad	268435456
	.quad	536870912
	.quad	1073741824
	.quad	2147483648
	.quad	4294967296
	.quad	8589934592
	.quad	17179869184
	.quad	34359738368
	.quad	68719476736
	.quad	137438953472
	.quad	274877906944
	.quad	549755813888
	.quad	1099511627776
	.quad	2199023255552
	.quad	4398046511104
	.quad	8796093022208
	.quad	17592186044416
	.quad	35184372088832
	.quad	70368744177664
	.quad	140737488355328
	.quad	281474976710656
	.quad	562949953421312
	.quad	1125899906842624
	.quad	2251799813685248
	.quad	4503599627370496
	.quad	9007199254740992
	.quad	18014398509481984
	.quad	36028797018963968
	.quad	72057594037927936
	.quad	144115188075855872
	.quad	288230376151711744
	.quad	576460752303423488
	.quad	1152921504606846976
	.quad	2305843009213693952
	.quad	4611686018427387904
	.quad	-9223372036854775808
	.local	_ZStL8__ioinit
	.comm	_ZStL8__ioinit,1,1
	.weakref	_ZL28__gthrw___pthread_key_createPjPFvPvE,__pthread_key_create
	.weakref	_ZL28__gthrw_pthread_mutex_unlockP15pthread_mutex_t,pthread_mutex_unlock
	.weakref	_ZL26__gthrw_pthread_mutex_lockP15pthread_mutex_t,pthread_mutex_lock
	.text
.Letext0:
	.file 16 "/usr/include/c++/9/cwchar"
	.file 17 "/usr/include/c++/9/new"
	.file 18 "/usr/include/c++/9/bits/exception_ptr.h"
	.file 19 "/usr/include/x86_64-linux-gnu/c++/9/bits/c++config.h"
	.file 20 "/usr/include/c++/9/type_traits"
	.file 21 "/usr/include/c++/9/bits/stl_pair.h"
	.file 22 "/usr/include/c++/9/debug/debug.h"
	.file 23 "/usr/include/c++/9/cstdint"
	.file 24 "/usr/include/c++/9/clocale"
	.file 25 "/usr/include/c++/9/cstdlib"
	.file 26 "/usr/include/c++/9/bits/algorithmfwd.h"
	.file 27 "/usr/include/c++/9/limits"
	.file 28 "/usr/include/c++/9/string_view"
	.file 29 "/usr/include/c++/9/chrono"
	.file 30 "/usr/include/c++/9/cstdio"
	.file 31 "/usr/include/c++/9/initializer_list"
	.file 32 "/usr/include/c++/9/bits/stringfwd.h"
	.file 33 "/usr/include/c++/9/bits/ios_base.h"
	.file 34 "/usr/include/c++/9/cwctype"
	.file 35 "/usr/include/c++/9/istream"
	.file 36 "/usr/include/c++/9/iosfwd"
	.file 37 "/usr/include/c++/9/utility"
	.file 38 "/usr/include/c++/9/bits/uses_allocator.h"
	.file 39 "/usr/include/c++/9/bits/stl_iterator_base_types.h"
	.file 40 "/usr/include/c++/9/tuple"
	.file 41 "/usr/include/c++/9/bits/shared_ptr_base.h"
	.file 42 "/usr/include/c++/9/bits/atomic_base.h"
	.file 43 "/usr/include/c++/9/ctime"
	.file 44 "/usr/include/c++/9/ratio"
	.file 45 "/usr/include/c++/9/mutex"
	.file 46 "/usr/include/c++/9/ostream"
	.file 47 "/usr/include/c++/9/bits/ptr_traits.h"
	.file 48 "/usr/include/c++/9/bits/functexcept.h"
	.file 49 "/usr/include/c++/9/bits/ostream_insert.h"
	.file 50 "/usr/include/c++/9/bits/predefined_ops.h"
	.file 51 "/usr/include/c++/9/ext/numeric_traits.h"
	.file 52 "/usr/include/c++/9/ext/alloc_traits.h"
	.file 53 "/usr/include/c++/9/bits/stl_iterator.h"
	.file 54 "/usr/include/c++/9/ext/concurrence.h"
	.file 55 "/usr/lib/gcc/x86_64-linux-gnu/9/include/stddef.h"
	.file 56 "<built-in>"
	.file 57 "/usr/include/x86_64-linux-gnu/bits/types/wint_t.h"
	.file 58 "/usr/include/x86_64-linux-gnu/bits/types/__mbstate_t.h"
	.file 59 "/usr/include/x86_64-linux-gnu/bits/types/mbstate_t.h"
	.file 60 "/usr/include/x86_64-linux-gnu/bits/types/__FILE.h"
	.file 61 "/usr/include/x86_64-linux-gnu/bits/types/struct_FILE.h"
	.file 62 "/usr/include/x86_64-linux-gnu/bits/types/FILE.h"
	.file 63 "/usr/include/wchar.h"
	.file 64 "/usr/include/x86_64-linux-gnu/bits/wchar2.h"
	.file 65 "/usr/include/x86_64-linux-gnu/bits/types/struct_tm.h"
	.file 66 "/usr/include/x86_64-linux-gnu/bits/types.h"
	.file 67 "/usr/include/x86_64-linux-gnu/bits/stdint-intn.h"
	.file 68 "/usr/include/x86_64-linux-gnu/bits/stdint-uintn.h"
	.file 69 "/usr/include/stdint.h"
	.file 70 "/usr/include/locale.h"
	.file 71 "/usr/include/x86_64-linux-gnu/bits/types/time_t.h"
	.file 72 "/usr/include/x86_64-linux-gnu/bits/types/struct_timespec.h"
	.file 73 "/usr/include/x86_64-linux-gnu/bits/types/clock_t.h"
	.file 74 "/usr/include/time.h"
	.file 75 "/usr/include/x86_64-linux-gnu/bits/thread-shared-types.h"
	.file 76 "/usr/include/x86_64-linux-gnu/bits/struct_mutex.h"
	.file 77 "/usr/include/x86_64-linux-gnu/bits/pthreadtypes.h"
	.file 78 "/usr/include/x86_64-linux-gnu/c++/9/bits/atomic_word.h"
	.file 79 "/usr/include/stdlib.h"
	.file 80 "/usr/include/x86_64-linux-gnu/bits/stdlib-float.h"
	.file 81 "/usr/include/x86_64-linux-gnu/bits/stdlib-bsearch.h"
	.file 82 "/usr/include/x86_64-linux-gnu/bits/stdlib.h"
	.file 83 "/usr/include/x86_64-linux-gnu/bits/types/__fpos_t.h"
	.file 84 "/usr/include/stdio.h"
	.file 85 "/usr/include/x86_64-linux-gnu/bits/sys_errlist.h"
	.file 86 "/usr/include/x86_64-linux-gnu/bits/stdio2.h"
	.file 87 "/usr/include/x86_64-linux-gnu/bits/stdio.h"
	.file 88 "/usr/include/errno.h"
	.file 89 "/usr/include/x86_64-linux-gnu/bits/wctype-wchar.h"
	.file 90 "/usr/include/wctype.h"
	.file 91 "/usr/include/c++/9/pstl/execution_defs.h"
	.file 92 "Move.h"
	.file 93 "/usr/include/assert.h"