	.file	"main.cpp"
	.text
.Ltext0:
	.section	.text._ZN6Charon8Position9applyMoveERKNS_4MoveE,"axG",@progbits,_ZN6Charon8Position9applyMoveERKNS_4MoveE,comdat
	.align 2
	.weak	_ZN6Charon8Position9applyMoveERKNS_4MoveE
	.type	_ZN6Charon8Position9applyMoveERKNS_4MoveE, @function
_ZN6Charon8Position9applyMoveERKNS_4MoveE:
.LVL0:
.LFB3882:
	.file 1 "Position.h"
	.loc 1 25 15 view -0
	.cfi_startproc
	.loc 1 25 15 is_stmt 0 view .LVU1
	endbr64
	pushq	%r15
	.cfi_def_cfa_offset 16
	.cfi_offset 15, -16
	pushq	%r14
	.cfi_def_cfa_offset 24
	.cfi_offset 14, -24
	pushq	%r13
	.cfi_def_cfa_offset 32
	.cfi_offset 13, -32
	pushq	%r12
	.cfi_def_cfa_offset 40
	.cfi_offset 12, -40
	pushq	%rbp
	.cfi_def_cfa_offset 48
	.cfi_offset 6, -48
	pushq	%rbx
	.cfi_def_cfa_offset 56
	.cfi_offset 3, -56
	subq	$120, %rsp
	.cfi_def_cfa_offset 176
	movq	%rdi, %rbx
	movq	%rdx, %rcx
	.loc 1 25 15 view .LVU2
	movq	%fs:40, %rax
	movq	%rax, 104(%rsp)
	xorl	%eax, %eax
	.loc 1 26 13 is_stmt 1 view .LVU3
	.loc 1 27 21 is_stmt 0 view .LVU4
	movq	(%rsi), %rdx
.LVL1:
.LBB145:
.LBI145:
	.file 2 "Board.h"
	.loc 2 134 33 is_stmt 1 view .LVU5
.LBB146:
	.loc 2 135 11 view .LVU6
	.loc 2 135 11 is_stmt 0 view .LVU7
.LBE146:
.LBE145:
.LBB147:
.LBI147:
	.loc 2 79 24 is_stmt 1 view .LVU8
.LBB148:
	.loc 2 80 13 view .LVU9
	.loc 2 80 20 is_stmt 0 view .LVU10
	movq	192(%rdx), %rax
	movq	72(%rax), %rbp
.LVL2:
	.loc 2 80 20 view .LVU11
.LBE148:
.LBE147:
	.loc 1 27 58 view .LVU12
	cmpq	$1, %rbp
	setb	%r8b
	sbbl	%eax, %eax
	addl	$1, %eax
.LVL3:
	.loc 1 30 13 is_stmt 1 view .LVU13
.LBB149:
.LBI149:
	.file 3 "Move.h"
	.loc 3 96 23 view .LVU14
.LBB150:
	.loc 3 97 11 view .LVU15
	.loc 3 97 18 is_stmt 0 view .LVU16
	movzwl	(%rcx), %ecx
.LVL4:
	.loc 3 97 18 view .LVU17
.LBE150:
.LBE149:
	.loc 1 31 13 is_stmt 1 view .LVU18
.LBB151:
.LBI151:
	.loc 3 100 23 view .LVU19
.LBB152:
	.loc 3 101 13 view .LVU20
	.loc 3 102 18 is_stmt 0 view .LVU21
	movzwl	%cx, %esi
.LVL5:
	.loc 3 102 18 view .LVU22
.LBE152:
.LBE151:
	.loc 1 33 42 view .LVU23
	leaq	_ZN6Charon10WitchcraftL16SquareToBitBoardE(%rip), %r9
	andl	$63, %ecx
.LVL6:
	.loc 1 33 42 view .LVU24
	movq	(%r9,%rcx,8), %rcx
.LBB154:
.LBB153:
	.loc 3 102 27 view .LVU25
	movl	%esi, %edi
.LVL7:
	.loc 3 102 27 view .LVU26
	sarl	$6, %edi
.LBE153:
.LBE154:
	.loc 1 32 48 view .LVU27
	andl	$63, %edi
	.loc 1 33 42 view .LVU28
	movq	%rcx, %r14
	orq	(%r9,%rdi,8), %r14
.LVL8:
	.loc 1 34 13 is_stmt 1 view .LVU29
.LBB155:
.LBI155:
	.loc 3 112 23 view .LVU30
.LBB156:
	.loc 3 113 13 view .LVU31
	.loc 3 113 13 is_stmt 0 view .LVU32
.LBE156:
.LBE155:
	.loc 1 34 13 view .LVU33
	testl	$16384, %esi
	jne	.L3
	movq	%r14, %rdi
	.loc 1 35 17 is_stmt 1 view .LVU34
.LVL9:
.LBB157:
.LBI157:
	.loc 2 220 22 view .LVU35
.LBB158:
.LBB159:
	.loc 2 221 29 is_stmt 0 view .LVU36
	movzwl	176(%rdx), %r12d
	.loc 2 224 56 view .LVU37
	cmpq	$0, 80(%rdx)
	setne	%r14b
.LVL10:
	.loc 2 224 56 view .LVU38
	cmpq	$0, 168(%rdx)
	setne	%r13b
.LBB160:
	.loc 2 225 17 is_stmt 1 view .LVU39
.LVL11:
	.loc 2 226 17 view .LVU40
	.loc 2 226 40 is_stmt 0 view .LVU41
	movq	16(%rdx), %r9
	movq	%r9, 8(%rsp)
	.loc 2 227 17 is_stmt 1 view .LVU42
	.loc 2 227 40 is_stmt 0 view .LVU43
	movq	24(%rdx), %r9
	movq	%r9, 16(%rsp)
	.loc 2 228 17 is_stmt 1 view .LVU44
	.loc 2 228 40 is_stmt 0 view .LVU45
	movq	40(%rdx), %r9
	movq	%r9, 24(%rsp)
	.loc 2 229 17 is_stmt 1 view .LVU46
	.loc 2 229 40 is_stmt 0 view .LVU47
	movq	32(%rdx), %r9
	movq	%r9, 32(%rsp)
	.loc 2 230 17 is_stmt 1 view .LVU48
	.loc 2 230 40 is_stmt 0 view .LVU49
	movq	48(%rdx), %r9
	movq	%r9, 40(%rsp)
	.loc 2 231 17 is_stmt 1 view .LVU50
	.loc 2 231 40 is_stmt 0 view .LVU51
	movq	56(%rdx), %r9
	movq	%r9, 48(%rsp)
	.loc 2 232 17 is_stmt 1 view .LVU52
.LVL12:
	.loc 2 233 17 view .LVU53
	.loc 2 233 40 is_stmt 0 view .LVU54
	movq	104(%rdx), %r9
	movq	%r9, 56(%rsp)
	.loc 2 234 17 is_stmt 1 view .LVU55
	.loc 2 234 40 is_stmt 0 view .LVU56
	movq	112(%rdx), %r9
	movq	%r9, 64(%rsp)
	.loc 2 235 17 is_stmt 1 view .LVU57
	.loc 2 235 40 is_stmt 0 view .LVU58
	movq	128(%rdx), %r9
	movq	%r9, 72(%rsp)
	.loc 2 236 17 is_stmt 1 view .LVU59
	.loc 2 236 40 is_stmt 0 view .LVU60
	movq	120(%rdx), %r9
	movq	%r9, 80(%rsp)
	.loc 2 237 17 is_stmt 1 view .LVU61
	.loc 2 237 40 is_stmt 0 view .LVU62
	movq	136(%rdx), %r9
	movq	%r9, 88(%rsp)
	.loc 2 238 17 is_stmt 1 view .LVU63
	.loc 2 238 40 is_stmt 0 view .LVU64
	movq	144(%rdx), %rdx
.LVL13:
	.loc 2 238 40 view .LVU65
	movq	%rdx, 96(%rsp)
.LVL14:
	.loc 2 238 40 view .LVU66
.LBE160:
.LBE159:
.LBE158:
.LBE157:
.LBB161:
.LBI161:
	.loc 2 261 29 is_stmt 1 view .LVU67
.LBB162:
	.loc 2 263 17 view .LVU68
	.loc 2 263 32 is_stmt 0 view .LVU69
	notq	%rcx
.LVL15:
	.loc 2 264 17 is_stmt 1 view .LVU70
	.loc 2 264 33 is_stmt 0 view .LVU71
	movzbl	%al, %eax
	leaq	(%rax,%rax), %rdx
	leaq	(%rdx,%rax), %r9
	salq	$4, %r9
	movq	%rcx, %r11
	andq	8(%rsp,%r9), %r11
	movq	%r11, 8(%rsp,%r9)
	.loc 2 265 17 is_stmt 1 view .LVU72
	.loc 2 265 33 is_stmt 0 view .LVU73
	leaq	(%rdx,%rax), %r9
	salq	$4, %r9
	movq	%rcx, %r10
	andq	16(%rsp,%r9), %r10
	.loc 2 266 17 is_stmt 1 view .LVU74
	.loc 2 266 35 is_stmt 0 view .LVU75
	leaq	(%rdx,%rax), %r9
	salq	$4, %r9
	movq	%rcx, %r15
	andq	24(%rsp,%r9), %r15
	movq	%r15, 24(%rsp,%r9)
	.loc 2 267 17 is_stmt 1 view .LVU76
	.loc 2 267 35 is_stmt 0 view .LVU77
	leaq	(%rdx,%rax), %r9
	salq	$4, %r9
	movq	%rcx, %r15
	andq	32(%rsp,%r9), %r15
	movq	%r15, 32(%rsp,%r9)
	.loc 2 268 17 is_stmt 1 view .LVU78
	.loc 2 268 33 is_stmt 0 view .LVU79
	leaq	(%rdx,%rax), %r9
	salq	$4, %r9
	andq	%rcx, %r10
	movq	%r10, 16(%rsp,%r9)
	.loc 2 269 17 is_stmt 1 view .LVU80
	.loc 2 269 34 is_stmt 0 view .LVU81
	leaq	(%rdx,%rax), %r9
	salq	$4, %r9
	movq	%rcx, %r15
	andq	40(%rsp,%r9), %r15
	movq	%r15, 40(%rsp,%r9)
	.loc 2 270 17 is_stmt 1 view .LVU82
	.loc 2 270 33 is_stmt 0 view .LVU83
	leaq	(%rdx,%rax), %r9
	salq	$4, %r9
	andq	48(%rsp,%r9), %rcx
.LVL16:
	.loc 2 270 33 view .LVU84
	movq	%rcx, 48(%rsp,%r9)
	.loc 2 271 17 is_stmt 1 view .LVU85
.LVL17:
	.loc 2 271 17 is_stmt 0 view .LVU86
.LBE162:
.LBE161:
.LBB163:
.LBI163:
	.loc 3 106 23 is_stmt 1 view .LVU87
.LBB164:
	.loc 3 107 13 view .LVU88
	.loc 3 108 27 is_stmt 0 view .LVU89
	sarl	$12, %esi
.LVL18:
	.loc 3 108 27 view .LVU90
.LBE164:
.LBE163:
.LBB165:
.LBI165:
	.loc 2 251 29 is_stmt 1 view .LVU91
.LBB166:
	.loc 2 254 15 view .LVU92
	.loc 2 254 32 is_stmt 0 view .LVU93
	andl	$7, %esi
.LVL19:
	.loc 2 254 32 view .LVU94
	andl	$1, %r8d
	leaq	(%r8,%r8), %rax
	leaq	(%rax,%r8), %rdx
	leaq	(%rsi,%rdx,2), %rdx
	xorq	8(%rsp,%rdx,8), %rdi
.LVL20:
	.loc 2 254 17 view .LVU95
	movq	%rdi, 8(%rsp,%rdx,8)
	call	_ZN6Charon10Witchcraft2bbEm@PLT
.LVL21:
	.loc 2 254 39 is_stmt 1 view .LVU96
	.loc 2 254 39 is_stmt 0 view .LVU97
.LBE166:
.LBE165:
.LBB167:
.LBI167:
	.loc 2 287 19 is_stmt 1 view .LVU98
.LBB168:
	.loc 2 287 35 view .LVU99
.LBB169:
.LBI169:
	.loc 2 315 28 view .LVU100
.LBB170:
.LBB171:
.LBB172:
.LBI172:
	.loc 2 295 9 view .LVU101
.LBB173:
	.loc 2 296 13 view .LVU102
	.loc 2 296 40 is_stmt 0 view .LVU103
	movq	8(%rsp), %r9
	.loc 2 296 66 view .LVU104
	movq	16(%rsp), %r8
	.loc 2 297 42 view .LVU105
	movq	24(%rsp), %rsi
	.loc 2 297 68 view .LVU106
	movq	32(%rsp), %rdi
	.loc 2 298 41 view .LVU107
	movq	40(%rsp), %rcx
	.loc 2 298 66 view .LVU108
	movq	48(%rsp), %rdx
	.loc 2 296 44 view .LVU109
	movq	%r9, %rax
	orq	%r8, %rax
	.loc 2 296 70 view .LVU110
	orq	%rsi, %rax
	.loc 2 297 44 view .LVU111
	orq	%rdi, %rax
	.loc 2 297 70 view .LVU112
	orq	%rcx, %rax
	.loc 2 298 66 view .LVU113
	orq	%rdx, %rax
.LVL22:
	.loc 2 298 66 view .LVU114
.LBE173:
.LBE172:
.LBB174:
.LBI174:
	.loc 2 66 19 is_stmt 1 view .LVU115
.LBB175:
.LBB176:
	.loc 2 73 52 is_stmt 0 view .LVU116
	movq	%rbx, (%rbx)
	leaq	_ZN6Charon5Board13WhiteDefaultsE(%rip), %r15
	movq	%r15, 8(%rbx)
	movq	%r9, 16(%rbx)
	movq	%r8, 24(%rbx)
	movq	%rdi, 32(%rbx)
	movq	%rsi, 40(%rbx)
	movq	%rcx, 48(%rbx)
	movq	%rdx, 56(%rbx)
	movq	%rax, 64(%rbx)
	movq	$1, 72(%rbx)
	.loc 2 73 43 view .LVU117
	movzbl	%r14b, %r14d
	.loc 2 73 43 view .LVU118
	movq	%r14, 80(%rbx)
.LVL23:
	.loc 2 73 43 view .LVU119
.LBE176:
.LBE175:
.LBE174:
.LBB177:
.LBI177:
	.loc 2 302 9 is_stmt 1 view .LVU120
.LBB178:
	.loc 2 303 13 view .LVU121
	.loc 2 303 40 is_stmt 0 view .LVU122
	movq	56(%rsp), %r10
	.loc 2 303 66 view .LVU123
	movq	64(%rsp), %r9
	.loc 2 304 42 view .LVU124
	movq	72(%rsp), %rdi
	.loc 2 304 68 view .LVU125
	movq	80(%rsp), %r8
	.loc 2 305 41 view .LVU126
	movq	88(%rsp), %rsi
	.loc 2 305 66 view .LVU127
	movq	96(%rsp), %rcx
	.loc 2 303 44 view .LVU128
	movq	%r10, %rdx
	orq	%r9, %rdx
	.loc 2 303 70 view .LVU129
	orq	%rdi, %rdx
	.loc 2 304 44 view .LVU130
	orq	%r8, %rdx
	.loc 2 304 70 view .LVU131
	orq	%rsi, %rdx
	.loc 2 305 66 view .LVU132
	orq	%rcx, %rdx
.LVL24:
	.loc 2 305 66 view .LVU133
.LBE178:
.LBE177:
.LBB179:
.LBI179:
	.loc 2 66 19 is_stmt 1 view .LVU134
.LBB180:
.LBB181:
	.loc 2 73 52 is_stmt 0 view .LVU135
	movq	%rbx, 88(%rbx)
	leaq	_ZN6Charon5Board13BlackDefaultsE(%rip), %r14
	movq	%r14, 96(%rbx)
	movq	%r10, 104(%rbx)
	movq	%r9, 112(%rbx)
	movq	%r8, 120(%rbx)
	movq	%rdi, 128(%rbx)
	movq	%rsi, 136(%rbx)
	movq	%rcx, 144(%rbx)
	movq	%rdx, 152(%rbx)
	movq	$0, 160(%rbx)
	.loc 2 73 43 view .LVU136
	movzbl	%r13b, %r13d
	.loc 2 73 43 view .LVU137
	movq	%r13, 168(%rbx)
.LVL25:
	.loc 2 73 43 view .LVU138
.LBE181:
.LBE180:
.LBE179:
	.loc 2 333 73 view .LVU139
	andw	$255, %r12w
	movw	%r12w, 176(%rbx)
	.loc 2 331 49 view .LVU140
	orq	%rdx, %rax
	movq	%rax, 184(%rbx)
	.loc 2 333 45 view .LVU141
	leaq	88(%rbx), %rax
	testq	%rbp, %rbp
	cmove	%rbx, %rax
	.loc 2 333 73 view .LVU142
	movq	%rax, 192(%rbx)
.LVL26:
	.loc 2 333 73 view .LVU143
.LBE171:
.LBE170:
.LBE169:
.LBE168:
.LBE167:
	.loc 1 43 9 view .LVU144
	movq	104(%rsp), %rax
	xorq	%fs:40, %rax
	jne	.L10
	movq	%rbx, %rax
	addq	$120, %rsp
	.cfi_remember_state
	.cfi_def_cfa_offset 56
	popq	%rbx
	.cfi_def_cfa_offset 48
.LVL27:
	.loc 1 43 9 view .LVU145
	popq	%rbp
	.cfi_def_cfa_offset 40
	popq	%r12
	.cfi_def_cfa_offset 32
	popq	%r13
	.cfi_def_cfa_offset 24
	popq	%r14
	.cfi_def_cfa_offset 16
	popq	%r15
	.cfi_def_cfa_offset 8
	ret
.LVL28:
.L3:
	.cfi_restore_state
	.loc 1 41 18 is_stmt 1 view .LVU146
	.loc 1 41 39 is_stmt 0 view .LVU147
	movl	$8, %edi
	call	__cxa_allocate_exception@PLT
.LVL29:
	.loc 1 41 39 view .LVU148
	movq	%rax, %rdi
.LVL30:
.LBB182:
.LBI182:
	.file 4 "/usr/include/c++/9/bits/exception.h"
	.loc 4 63 5 is_stmt 1 view .LVU149
.LBB183:
	.loc 4 63 34 is_stmt 0 view .LVU150
	leaq	16+_ZTVSt9exception(%rip), %rax
.LVL31:
	.loc 4 63 34 view .LVU151
	movq	%rax, (%rdi)
.LVL32:
	.loc 4 63 34 view .LVU152
.LBE183:
.LBE182:
	.loc 1 41 39 view .LVU153
	movq	_ZNSt9exceptionD1Ev@GOTPCREL(%rip), %rdx
	leaq	_ZTISt9exception(%rip), %rsi
	call	__cxa_throw@PLT
.LVL33:
.L10:
	.loc 1 43 9 view .LVU154
	call	__stack_chk_fail@PLT
.LVL34:
	.cfi_endproc
.LFE3882:
	.size	_ZN6Charon8Position9applyMoveERKNS_4MoveE, .-_ZN6Charon8Position9applyMoveERKNS_4MoveE
	.text
	.globl	main
	.type	main, @function
main:
.LFB3883:
	.file 5 "main.cpp"
	.loc 5 15 12 is_stmt 1 view -0
	.cfi_startproc
	endbr64
	pushq	%r13
	.cfi_def_cfa_offset 16
	.cfi_offset 13, -16
	pushq	%r12
	.cfi_def_cfa_offset 24
	.cfi_offset 12, -24
	pushq	%rbp
	.cfi_def_cfa_offset 32
	.cfi_offset 6, -32
	pushq	%rbx
	.cfi_def_cfa_offset 40
	.cfi_offset 3, -40
	subq	$248, %rsp
	.cfi_def_cfa_offset 288
	.loc 5 15 12 is_stmt 0 view .LVU156
	movl	$40, %r12d
	movq	%fs:(%r12), %rax
	movq	%rax, 232(%rsp)
	xorl	%eax, %eax
	.loc 5 16 5 is_stmt 1 view .LVU157
	.loc 5 16 45 is_stmt 0 view .LVU158
	call	_ZNSt6chrono3_V212system_clock3nowEv@PLT
.LVL35:
	movq	%rax, %rbx
.LVL36:
	.loc 5 17 5 is_stmt 1 view .LVU159
	.loc 5 17 21 is_stmt 0 view .LVU160
	call	_ZN6Charon10Witchcraft4initEv@PLT
.LVL37:
	.loc 5 18 5 is_stmt 1 view .LVU161
	.loc 5 18 44 is_stmt 0 view .LVU162
	call	_ZNSt6chrono3_V212system_clock3nowEv@PLT
.LVL38:
	.loc 5 19 5 is_stmt 1 view .LVU163
.LBB237:
.LBI237:
	.file 6 "/usr/include/c++/9/chrono"
	.loc 6 762 7 view .LVU164
.LBB238:
.LBI238:
	.loc 6 649 2 view .LVU165
	.loc 6 649 2 is_stmt 0 view .LVU166
.LBE238:
.LBB239:
.LBI239:
	.loc 6 649 2 is_stmt 1 view .LVU167
	.loc 6 649 2 is_stmt 0 view .LVU168
.LBE239:
.LBB240:
.LBI240:
	.loc 6 463 7 is_stmt 1 view .LVU169
.LBB241:
.LBB242:
.LBI242:
	.loc 6 331 23 view .LVU170
	.loc 6 331 23 is_stmt 0 view .LVU171
.LBE242:
.LBE241:
.LBE240:
.LBE237:
.LBB245:
.LBI245:
	.loc 6 191 7 is_stmt 1 view .LVU172
.LBB246:
.LBB247:
.LBI247:
	.loc 6 149 4 view .LVU173
	.loc 6 149 4 is_stmt 0 view .LVU174
.LBE247:
.LBE246:
.LBE245:
.LBB252:
.LBB244:
.LBB243:
	.loc 6 469 34 view .LVU175
	subq	%rbx, %rax
	movq	%rax, %rcx
.LBE243:
.LBE244:
.LBE252:
.LBB253:
.LBB251:
.LBB250:
.LBB248:
	.loc 6 153 38 view .LVU176
	movabsq	$4835703278458516699, %rdx
	imulq	%rdx
	sarq	$18, %rdx
	sarq	$63, %rcx
	subq	%rcx, %rdx
	movq	%rdx, %rbp
.LBB249:
.LBI249:
	.loc 6 331 23 is_stmt 1 view .LVU177
.LVL39:
	.loc 6 331 23 is_stmt 0 view .LVU178
.LBE249:
.LBE248:
.LBE250:
.LBE251:
.LBE253:
	.loc 5 20 5 is_stmt 1 view .LVU179
	.loc 5 20 5 is_stmt 0 view .LVU180
	movb	$10, 32(%rsp)
.LVL40:
.LBB254:
.LBI254:
	.file 7 "/usr/include/c++/9/ostream"
	.loc 7 517 5 is_stmt 1 view .LVU181
.LBB255:
	.loc 7 518 30 is_stmt 0 view .LVU182
	leaq	32(%rsp), %rbx
.LVL41:
	.loc 7 518 30 view .LVU183
	movl	$1, %edx
.LVL42:
	.loc 7 518 30 view .LVU184
	movq	%rbx, %rsi
	leaq	_ZSt4cout(%rip), %rdi
	call	_ZSt16__ostream_insertIcSt11char_traitsIcEERSt13basic_ostreamIT_T0_ES6_PKS3_l@PLT
.LVL43:
	.loc 7 518 30 view .LVU185
	movq	%rax, %rdi
.LVL44:
	.loc 7 518 30 view .LVU186
.LBE255:
.LBE254:
.LBB256:
.LBI256:
	.loc 7 166 7 is_stmt 1 view .LVU187
.LBB257:
	.loc 7 167 29 is_stmt 0 view .LVU188
	movq	%rbp, %rsi
	call	_ZNSo9_M_insertIlEERSoT_@PLT
.LVL45:
	.loc 7 167 29 view .LVU189
.LBE257:
.LBE256:
	.loc 5 21 5 is_stmt 1 view .LVU190
.LBB258:
.LBI258:
	.loc 2 213 22 view .LVU191
	.loc 2 213 22 is_stmt 0 view .LVU192
.LBE258:
.LBB259:
.LBI259:
	.loc 2 287 19 is_stmt 1 view .LVU193
.LBB260:
	.loc 2 287 35 view .LVU194
.LBB261:
.LBI261:
	.loc 2 315 28 view .LVU195
.LBB262:
.LBB263:
.LBB264:
.LBI264:
	.loc 2 295 9 view .LVU196
.LBE264:
.LBE263:
.LBE262:
.LBE261:
.LBE260:
.LBE259:
	.loc 2 296 13 view .LVU197
.LBB280:
.LBB278:
.LBB276:
.LBB274:
.LBB272:
.LBB265:
.LBI265:
	.loc 2 66 19 view .LVU198
.LBB266:
.LBB267:
	.loc 2 73 52 is_stmt 0 view .LVU199
	movq	%rbx, 32(%rsp)
	leaq	_ZN6Charon5Board13WhiteDefaultsE(%rip), %rax
	movq	%rax, 40(%rsp)
	movq	$65280, 48(%rsp)
	movq	$129, 56(%rsp)
	movq	$36, 64(%rsp)
	movq	$66, 72(%rsp)
	movq	$16, 80(%rsp)
	movq	$8, 88(%rsp)
	movq	$65535, 96(%rsp)
	movq	$1, 104(%rsp)
	movq	$1, 112(%rsp)
.LVL46:
	.loc 2 73 52 view .LVU200
.LBE267:
.LBE266:
.LBE265:
.LBB268:
.LBI268:
	.loc 2 302 9 is_stmt 1 view .LVU201
.LBE268:
.LBE272:
.LBE274:
.LBE276:
.LBE278:
.LBE280:
	.loc 2 303 13 view .LVU202
.LBB281:
.LBB279:
.LBB277:
.LBB275:
.LBB273:
.LBB269:
.LBI269:
	.loc 2 66 19 view .LVU203
.LBB270:
.LBB271:
	.loc 2 73 52 is_stmt 0 view .LVU204
	movq	%rbx, 120(%rsp)
	leaq	_ZN6Charon5Board13BlackDefaultsE(%rip), %rax
	movq	%rax, 128(%rsp)
	movabsq	$71776119061217280, %rax
	movq	%rax, 136(%rsp)
	movabsq	$-9151314442816847872, %rax
	movq	%rax, 144(%rsp)
	movabsq	$2594073385365405696, %rax
	movq	%rax, 152(%rsp)
	movabsq	$4755801206503243776, %rax
	movq	%rax, 160(%rsp)
	movabsq	$1152921504606846976, %rax
	movq	%rax, 168(%rsp)
	movabsq	$576460752303423488, %rax
	movq	%rax, 176(%rsp)
	movabsq	$-281474976710656, %rax
	movq	%rax, 184(%rsp)
	movq	$0, 192(%rsp)
	movq	$1, 200(%rsp)
.LVL47:
	.loc 2 73 52 view .LVU205
.LBE271:
.LBE270:
.LBE269:
	.loc 2 333 73 view .LVU206
	movw	$64, 208(%rsp)
	leaq	65535(%rax), %rax
	movq	%rax, 216(%rsp)
	movq	%rbx, 224(%rsp)
.LVL48:
	.loc 2 333 73 view .LVU207
.LBE273:
.LBE275:
.LBE277:
.LBE279:
.LBE281:
	.loc 5 21 40 view .LVU208
	leaq	8(%rsp), %r13
	movq	%rbx, %rsi
	movq	%r13, %rdi
	call	_ZN6Charon8PositionC1ERKNS_5BoardE@PLT
.LVL49:
	.loc 5 22 5 is_stmt 1 view .LVU209
	.loc 5 22 43 is_stmt 0 view .LVU210
	movw	$528, 24(%rsp)
	.loc 5 22 50 view .LVU211
	leaq	24(%rsp), %rbp
.LVL50:
	.loc 5 22 50 view .LVU212
	movq	%rbp, %rdx
	movq	%r13, %rsi
	movq	%rbx, %rdi
	call	_ZN6Charon8Position9applyMoveERKNS_4MoveE
.LVL51:
	.loc 5 22 51 view .LVU213
	leaq	16(%rsp), %r13
	movq	%rbx, %rsi
	movq	%r13, %rdi
	call	_ZN6Charon8PositionC1ERKNS_5BoardE@PLT
.LVL52:
	.loc 5 23 5 is_stmt 1 view .LVU214
	.loc 5 23 43 is_stmt 0 view .LVU215
	movw	$3567, 6(%rsp)
	.loc 5 23 51 view .LVU216
	leaq	6(%rsp), %rdx
	movq	%r13, %rsi
	movq	%rbx, %rdi
	call	_ZN6Charon8Position9applyMoveERKNS_4MoveE
.LVL53:
	.loc 5 23 52 view .LVU217
	movq	%rbx, %rsi
	movq	%rbp, %rdi
	call	_ZN6Charon8PositionC1ERKNS_5BoardE@PLT
.LVL54:
	.loc 5 24 5 is_stmt 1 view .LVU218
.LBB282:
.LBI282:
	.loc 1 21 22 view .LVU219
.LBB283:
	.loc 1 22 13 view .LVU220
	.loc 1 22 13 is_stmt 0 view .LVU221
.LBE283:
.LBE282:
.LBB284:
.LBI284:
	.loc 7 245 7 is_stmt 1 view .LVU222
.LBB285:
	.loc 7 246 29 is_stmt 0 view .LVU223
	movq	8(%rsp), %rsi
	leaq	_ZSt4cout(%rip), %rdi
	call	_ZNSo9_M_insertIPKvEERSoT_@PLT
.LVL55:
	.loc 7 246 29 view .LVU224
	movq	%rax, %rdi
.LVL56:
	.loc 7 246 29 view .LVU225
	movb	$10, 32(%rsp)
.LVL57:
	.loc 7 246 29 view .LVU226
.LBE285:
.LBE284:
.LBB286:
.LBI286:
	.loc 7 517 5 is_stmt 1 view .LVU227
.LBB287:
	.loc 7 518 30 is_stmt 0 view .LVU228
	movl	$1, %edx
	movq	%rbx, %rsi
	call	_ZSt16__ostream_insertIcSt11char_traitsIcEERSt13basic_ostreamIT_T0_ES6_PKS3_l@PLT
.LVL58:
	.loc 7 518 30 view .LVU229
.LBE287:
.LBE286:
	.loc 5 25 5 is_stmt 1 view .LVU230
.LBB288:
.LBI288:
	.loc 1 21 22 view .LVU231
.LBB289:
	.loc 1 22 13 view .LVU232
	.loc 1 22 13 is_stmt 0 view .LVU233
.LBE289:
.LBE288:
.LBB290:
.LBI290:
	.loc 7 245 7 is_stmt 1 view .LVU234
.LBB291:
	.loc 7 246 29 is_stmt 0 view .LVU235
	movq	16(%rsp), %rsi
	leaq	_ZSt4cout(%rip), %rdi
	call	_ZNSo9_M_insertIPKvEERSoT_@PLT
.LVL59:
	.loc 7 246 29 view .LVU236
	movq	%rax, %rdi
.LVL60:
	.loc 7 246 29 view .LVU237
	movb	$10, 32(%rsp)
.LVL61:
	.loc 7 246 29 view .LVU238
.LBE291:
.LBE290:
.LBB292:
.LBI292:
	.loc 7 517 5 is_stmt 1 view .LVU239
.LBB293:
	.loc 7 518 30 is_stmt 0 view .LVU240
	movl	$1, %edx
	movq	%rbx, %rsi
	call	_ZSt16__ostream_insertIcSt11char_traitsIcEERSt13basic_ostreamIT_T0_ES6_PKS3_l@PLT
.LVL62:
	.loc 7 518 30 view .LVU241
.LBE293:
.LBE292:
	.loc 5 26 5 is_stmt 1 view .LVU242
.LBB294:
.LBI294:
	.loc 1 21 22 view .LVU243
.LBB295:
	.loc 1 22 13 view .LVU244
	.loc 1 22 13 is_stmt 0 view .LVU245
.LBE295:
.LBE294:
.LBB296:
.LBI296:
	.loc 7 245 7 is_stmt 1 view .LVU246
.LBB297:
	.loc 7 246 29 is_stmt 0 view .LVU247
	movq	24(%rsp), %rsi
	leaq	_ZSt4cout(%rip), %rdi
	call	_ZNSo9_M_insertIPKvEERSoT_@PLT
.LVL63:
	.loc 7 246 29 view .LVU248
	movq	%rax, %rdi
.LVL64:
	.loc 7 246 29 view .LVU249
	movb	$10, 32(%rsp)
.LVL65:
	.loc 7 246 29 view .LVU250
.LBE297:
.LBE296:
.LBB298:
.LBI298:
	.loc 7 517 5 is_stmt 1 view .LVU251
.LBB299:
	.loc 7 518 30 is_stmt 0 view .LVU252
	movl	$1, %edx
	movq	%rbx, %rsi
	call	_ZSt16__ostream_insertIcSt11char_traitsIcEERSt13basic_ostreamIT_T0_ES6_PKS3_l@PLT
.LVL66:
	.loc 7 518 30 view .LVU253
.LBE299:
.LBE298:
	.loc 5 27 5 is_stmt 1 view .LVU254
	.loc 5 27 24 is_stmt 0 view .LVU255
	call	_ZN6Charon10Witchcraft7destroyEv@PLT
.LVL67:
	.loc 5 28 1 view .LVU256
	movq	232(%rsp), %rax
	xorq	%fs:(%r12), %rax
	jne	.L14
	movl	$0, %eax
	addq	$248, %rsp
	.cfi_remember_state
	.cfi_def_cfa_offset 40
	popq	%rbx
	.cfi_def_cfa_offset 32
	popq	%rbp
	.cfi_def_cfa_offset 24
	popq	%r12
	.cfi_def_cfa_offset 16
	popq	%r13
	.cfi_def_cfa_offset 8
	ret
.L14:
	.cfi_restore_state
	call	__stack_chk_fail@PLT
.LVL68:
	.cfi_endproc
.LFE3883:
	.size	main, .-main
	.type	_GLOBAL__sub_I_main, @function
_GLOBAL__sub_I_main:
.LFB4542:
	.loc 5 28 1 is_stmt 1 view -0
	.cfi_startproc
	endbr64
	subq	$8, %rsp
	.cfi_def_cfa_offset 16
.LVL69:
.LBB302:
.LBI302:
	.loc 5 28 1 view .LVU258
.LBB303:
	.file 8 "/usr/include/c++/9/iostream"
	.loc 8 74 25 is_stmt 0 view .LVU259
	leaq	_ZStL8__ioinit(%rip), %rdi
	call	_ZNSt8ios_base4InitC1Ev@PLT
.LVL70:
	leaq	__dso_handle(%rip), %rdx
	leaq	_ZStL8__ioinit(%rip), %rsi
	movq	_ZNSt8ios_base4InitD1Ev@GOTPCREL(%rip), %rdi
	call	__cxa_atexit@PLT
.LVL71:
	.loc 8 74 25 view .LVU260
.LBE303:
.LBE302:
	.loc 5 28 1 view .LVU261
	addq	$8, %rsp
	.cfi_def_cfa_offset 8
	ret
	.cfi_endproc
.LFE4542:
	.size	_GLOBAL__sub_I_main, .-_GLOBAL__sub_I_main
	.section	.init_array,"aw"
	.align 8
	.quad	_GLOBAL__sub_I_main
	.weak	_ZN6Charon5Board13BlackDefaultsE
	.section	.rodata._ZN6Charon5Board13BlackDefaultsE,"aG",@progbits,_ZN6Charon5Board13BlackDefaultsE,comdat
	.align 32
	.type	_ZN6Charon5Board13BlackDefaultsE, @gnu_unique_object
	.size	_ZN6Charon5Board13BlackDefaultsE, 64
_ZN6Charon5Board13BlackDefaultsE:
	.quad	-72340172838076674
	.quad	9187201950435737471
	.byte	-8
	.byte	-9
	.byte	-7
	.byte	8
	.byte	7
	.byte	9
	.byte	1
	.byte	-1
	.quad	71776119061217280
	.quad	432345564227567616
	.quad	8070450532247928832
	.quad	57
	.quad	61
	.weak	_ZN6Charon5Board13WhiteDefaultsE
	.section	.rodata._ZN6Charon5Board13WhiteDefaultsE,"aG",@progbits,_ZN6Charon5Board13WhiteDefaultsE,comdat
	.align 32
	.type	_ZN6Charon5Board13WhiteDefaultsE, @gnu_unique_object
	.size	_ZN6Charon5Board13WhiteDefaultsE, 64
_ZN6Charon5Board13WhiteDefaultsE:
	.quad	9187201950435737471
	.quad	-72340172838076674
	.byte	8
	.byte	9
	.byte	7
	.byte	-8
	.byte	-7
	.byte	-9
	.byte	-1
	.byte	1
	.quad	65280
	.quad	6
	.quad	112
	.quad	1
	.quad	2
	.section	.rodata
	.align 32
	.type	_ZN6Charon10WitchcraftL16SquareToBitBoardE, @object
	.size	_ZN6Charon10WitchcraftL16SquareToBitBoardE, 512
_ZN6Charon10WitchcraftL16SquareToBitBoardE:
	.quad	1
	.quad	2
	.quad	4
	.quad	8
	.quad	16
	.quad	32
	.quad	64
	.quad	128
	.quad	256
	.quad	512
	.quad	1024
	.quad	2048
	.quad	4096
	.quad	8192
	.quad	16384
	.quad	32768
	.quad	65536
	.quad	131072
	.quad	262144
	.quad	524288
	.quad	1048576
	.quad	2097152
	.quad	4194304
	.quad	8388608
	.quad	16777216
	.quad	33554432
	.quad	67108864
	.quad	134217728
	.quad	268435456
	.quad	536870912
	.quad	1073741824
	.quad	2147483648
	.quad	4294967296
	.quad	8589934592
	.quad	17179869184
	.quad	34359738368
	.quad	68719476736
	.quad	137438953472
	.quad	274877906944
	.quad	549755813888
	.quad	1099511627776
	.quad	2199023255552
	.quad	4398046511104
	.quad	8796093022208
	.quad	17592186044416
	.quad	35184372088832
	.quad	70368744177664
	.quad	140737488355328
	.quad	281474976710656
	.quad	562949953421312
	.quad	1125899906842624
	.quad	2251799813685248
	.quad	4503599627370496
	.quad	9007199254740992
	.quad	18014398509481984
	.quad	36028797018963968
	.quad	72057594037927936
	.quad	144115188075855872
	.quad	288230376151711744
	.quad	576460752303423488
	.quad	1152921504606846976
	.quad	2305843009213693952
	.quad	4611686018427387904
	.quad	-9223372036854775808
	.local	_ZStL8__ioinit
	.comm	_ZStL8__ioinit,1,1
	.text
.Letext0:
	.file 9 "/usr/include/c++/9/bits/basic_string.h"
	.file 10 "/usr/include/c++/9/cwchar"
	.file 11 "/usr/include/c++/9/new"
	.file 12 "/usr/include/c++/9/bits/exception_ptr.h"
	.file 13 "/usr/include/x86_64-linux-gnu/c++/9/bits/c++config.h"
	.file 14 "/usr/include/c++/9/type_traits"
	.file 15 "/usr/include/c++/9/bits/stl_pair.h"
	.file 16 "/usr/include/c++/9/debug/debug.h"
	.file 17 "/usr/include/c++/9/bits/char_traits.h"
	.file 18 "/usr/include/c++/9/cstdint"
	.file 19 "/usr/include/c++/9/clocale"
	.file 20 "/usr/include/c++/9/bits/allocator.h"
	.file 21 "/usr/include/c++/9/cstdlib"
	.file 22 "/usr/include/c++/9/bits/algorithmfwd.h"
	.file 23 "/usr/include/c++/9/limits"
	.file 24 "/usr/include/c++/9/string_view"
	.file 25 "/usr/include/c++/9/cstdio"
	.file 26 "/usr/include/c++/9/bits/alloc_traits.h"
	.file 27 "/usr/include/c++/9/initializer_list"
	.file 28 "/usr/include/c++/9/bits/stringfwd.h"
	.file 29 "/usr/include/c++/9/bits/ios_base.h"
	.file 30 "/usr/include/c++/9/cwctype"
	.file 31 "/usr/include/c++/9/bits/ostream.tcc"
	.file 32 "/usr/include/c++/9/istream"
	.file 33 "/usr/include/c++/9/iosfwd"
	.file 34 "/usr/include/c++/9/utility"
	.file 35 "/usr/include/c++/9/bits/uses_allocator.h"
	.file 36 "/usr/include/c++/9/tuple"
	.file 37 "/usr/include/c++/9/bits/shared_ptr_base.h"
	.file 38 "/usr/include/c++/9/bits/atomic_base.h"
	.file 39 "/usr/include/c++/9/ctime"
	.file 40 "/usr/include/c++/9/ratio"
	.file 41 "/usr/include/c++/9/bits/std_mutex.h"
	.file 42 "/usr/include/c++/9/mutex"
	.file 43 "/usr/include/c++/9/bits/stl_iterator_base_types.h"
	.file 44 "/usr/include/c++/9/bits/ostream_insert.h"
	.file 45 "/usr/include/c++/9/bits/predefined_ops.h"
	.file 46 "/usr/include/c++/9/ext/new_allocator.h"
	.file 47 "/usr/include/c++/9/ext/numeric_traits.h"
	.file 48 "/usr/include/c++/9/ext/alloc_traits.h"
	.file 49 "/usr/include/c++/9/bits/stl_iterator.h"
	.file 50 "/usr/include/c++/9/ext/concurrence.h"
	.file 51 "/usr/lib/gcc/x86_64-linux-gnu/9/include/stddef.h"
	.file 52 "<built-in>"
	.file 53 "/usr/include/x86_64-linux-gnu/bits/types/wint_t.h"
	.file 54 "/usr/include/x86_64-linux-gnu/bits/types/__mbstate_t.h"
	.file 55 "/usr/include/x86_64-linux-gnu/bits/types/mbstate_t.h"
	.file 56 "/usr/include/x86_64-linux-gnu/bits/types/__FILE.h"
	.file 57 "/usr/include/x86_64-linux-gnu/bits/types/struct_FILE.h"
	.file 58 "/usr/include/x86_64-linux-gnu/bits/types/FILE.h"
	.file 59 "/usr/include/wchar.h"
	.file 60 "/usr/include/x86_64-linux-gnu/bits/wchar2.h"
	.file 61 "/usr/include/x86_64-linux-gnu/bits/types/struct_tm.h"
	.file 62 "/usr/include/c++/9/bits/ptr_traits.h"
	.file 63 "/usr/include/x86_64-linux-gnu/bits/types.h"
	.file 64 "/usr/include/x86_64-linux-gnu/bits/stdint-intn.h"
	.file 65 "/usr/include/x86_64-linux-gnu/bits/stdint-uintn.h"
	.file 66 "/usr/include/stdint.h"
	.file 67 "/usr/include/locale.h"
	.file 68 "/usr/include/x86_64-linux-gnu/bits/types/time_t.h"
	.file 69 "/usr/include/x86_64-linux-gnu/bits/types/struct_timespec.h"
	.file 70 "/usr/include/x86_64-linux-gnu/bits/types/clock_t.h"
	.file 71 "/usr/include/time.h"
	.file 72 "/usr/include/x86_64-linux-gnu/c++/9/bits/atomic_word.h"
	.file 73 "/usr/include/stdlib.h"
	.file 74 "/usr/include/x86_64-linux-gnu/bits/stdlib-float.h"
	.file 75 "/usr/include/x86_64-linux-gnu/bits/stdlib-bsearch.h"
	.file 76 "/usr/include/x86_64-linux-gnu/bits/stdlib.h"
	.file 77 "/usr/include/x86_64-linux-gnu/bits/types/__fpos_t.h"
	.file 78 "/usr/include/stdio.h"
	.file 79 "/usr/include/x86_64-linux-gnu/bits/sys_errlist.h"
	.file 80 "/usr/include/x86_64-linux-gnu/bits/stdio2.h"
	.file 81 "/usr/include/x86_64-linux-gnu/bits/stdio.h"
	.file 82 "/usr/include/errno.h"
	.file 83 "/usr/include/x86_64-linux-gnu/bits/wctype-wchar.h"
	.file 84 "/usr/include/wctype.h"
	.file 85 "/usr/include/c++/9/pstl/execution_defs.h"
	.file 86 "ChaosMagic.h"
	.file 87 "UniqueList.h"